

Microchip MPLAB XC8 Assembler V2.32 build 20210201212658 
                                                                                               Sun Aug 01 00:17:46 2021

Microchip MPLAB XC8 C Compiler v2.32 (Free license) build 20210201212658 Og1 
     1                           	processor	18F4520
     2                           	fnconf	rparam,??,?,0
     3                           	pagewidth 120
     4                           	opt	flic
     5                           	psect	smallconst,global,reloc=2,class=SMALLCONST,delta=1,noexec
     6                           	psect	cinit,global,reloc=2,class=CODE,delta=1
     7                           	psect	bssCOMRAM,global,class=COMRAM,space=1,delta=1,lowdata,noexec
     8                           	psect	cstackCOMRAM,global,class=COMRAM,space=1,delta=1,lowdata,noexec
     9                           	psect	text0,global,reloc=2,class=CODE,delta=1
    10                           	psect	text1,global,reloc=2,class=CODE,delta=1
    11                           	psect	text2,global,reloc=2,class=CODE,delta=1
    12                           	psect	text3,global,reloc=2,class=CODE,delta=1
    13                           	psect	text4,global,reloc=2,class=CODE,delta=1
    14                           	psect	text5,global,reloc=2,class=CODE,delta=1
    15                           	psect	text6,global,reloc=2,class=CODE,delta=1
    16                           	psect	text7,global,reloc=2,class=CODE,delta=1
    17                           	psect	text8,global,reloc=2,class=CODE,delta=1
    18                           	psect	text9,global,reloc=2,class=CODE,delta=1
    19                           	psect	text10,global,reloc=2,class=CODE,delta=1
    20                           	psect	text11,global,reloc=2,class=CODE,delta=1,group=1
    21                           	psect	text12,global,reloc=2,class=CODE,delta=1
    22                           	psect	text13,global,reloc=2,class=CODE,delta=1
    23                           	psect	text14,global,reloc=2,class=CODE,delta=1
    24                           	psect	text15,global,reloc=2,class=CODE,delta=1
    25                           	psect	text16,global,reloc=2,class=CODE,delta=1
    26                           	psect	text17,global,reloc=2,class=CODE,delta=1
    27                           	psect	text18,global,reloc=2,class=CODE,delta=1
    28                           	psect	text19,global,reloc=2,class=CODE,delta=1
    29                           	psect	text20,global,reloc=2,class=CODE,delta=1
    30                           	psect	text21,global,reloc=2,class=CODE,delta=1
    31                           	psect	text22,global,reloc=2,class=CODE,delta=1,group=1
    32                           	psect	text23,global,reloc=2,class=CODE,delta=1,group=1
    33                           	psect	text24,global,reloc=2,class=CODE,delta=1,group=1
    34                           	psect	intsave_regs,global,class=BIGRAM,space=1,delta=1,noexec
    35                           	psect	rparam,global,class=COMRAM,space=1,delta=1,noexec
    36                           	psect	idloc,global,abs,ovrld,class=IDLOC,space=5,delta=1,noexec
    37                           	psect	config,global,abs,ovrld,class=CONFIG,space=4,delta=1,noexec
    38  0000                     
    39                           ; Version 2.32
    40                           ; Generated 02/02/2021 GMT
    41                           ; 
    42                           ; Copyright © 2021, Microchip Technology Inc. and its subsidiaries ("Microchip")
    43                           ; All rights reserved.
    44                           ; 
    45                           ; This software is developed by Microchip Technology Inc. and its subsidiaries ("Microch
      +                          ip").
    46                           ; 
    47                           ; Redistribution and use in source and binary forms, with or without modification, are
    48                           ; permitted provided that the following conditions are met:
    49                           ; 
    50                           ;     1. Redistributions of source code must retain the above copyright notice, this lis
      +                          t of
    51                           ;        conditions and the following disclaimer.
    52                           ; 
    53                           ;     2. Redistributions in binary form must reproduce the above copyright notice, this 
      +                          list
    54                           ;        of conditions and the following disclaimer in the documentation and/or other
    55                           ;        materials provided with the distribution. Publication is not required when
    56                           ;        this file is used in an embedded application.
    57                           ; 
    58                           ;     3. Microchip's name may not be used to endorse or promote products derived from th
      +                          is
    59                           ;        software without specific prior written permission.
    60                           ; 
    61                           ; THIS SOFTWARE IS PROVIDED BY MICROCHIP "AS IS" AND ANY EXPRESS OR IMPLIED WARRANTIES,
    62                           ; INCLUDING, BUT NOT LIMITED TO, THE IMPLIED WARRANTIES OF MERCHANTABILITY AND FITNESS F
      +                          OR
    63                           ; PURPOSE ARE DISCLAIMED.  IN NO EVENT SHALL MICROCHIP BE LIABLE FOR ANY DIRECT, INDIREC
      +                          T,
    64                           ; INCIDENTAL, SPECIAL, EXEMPLARY, OR CONSEQUENTIAL DAMAGES (INCLUDING BUT NOT LIMITED TO
    65                           ; PROCUREMENT OF SUBSTITUTE GOODS OR SERVICES; LOSS OF USE, DATA OR PROFITS; OR BUSINESS
    66                           ; INTERRUPTION) HOWSOEVER CAUSED AND ON ANY THEORY OF LIABILITY, WHETHER IN CONTRACT, ST
      +                          RICT
    67                           ; LIABILITY, OR TORT (INCLUDING NEGLIGENCE OR OTHERWISE) ARISING IN ANY WAY OUT OF THE U
      +                          SE OF
    68                           ; THIS SOFTWARE, EVEN IF ADVISED OF THE POSSIBILITY OF SUCH DAMAGE.
    69                           ; 
    70                           ; 
    71                           ; Code-generator required, PIC18F4520 Definitions
    72                           ; 
    73                           ; SFR Addresses
    74  0000                     
    75                           	psect	smallconst
    76  000600                     __psmallconst:
    77                           	callstack 0
    78  000600  00                 	db	0
    79  000601                     _valor@ssd$F394:
    80                           	callstack 0
    81  000601  3F                 	db	63
    82  000602  06                 	db	6
    83  000603  5B                 	db	91
    84  000604  4F                 	db	79
    85  000605  66                 	db	102
    86  000606  6D                 	db	109
    87  000607  7D                 	db	125
    88  000608  07                 	db	7
    89  000609  7F                 	db	127
    90  00060A  6F                 	db	111
    91  00060B  77                 	db	119
    92  00060C  7C                 	db	124
    93  00060D  39                 	db	57
    94  00060E  5E                 	db	94
    95  00060F  79                 	db	121
    96  000610  71                 	db	113
    97  000611                     __end_of_valor@ssd$F394:
    98                           	callstack 0
    99  0000                     _T2CON	set	4042
   100  0000                     _CCP2CON	set	4026
   101  0000                     _CCPR2L	set	4027
   102  0000                     _CCP1CON	set	4029
   103  0000                     _CCPR1L	set	4030
   104  0000                     _PR2	set	4043
   105  0000                     _RCREG	set	4014
   106  0000                     _PIR1bits	set	3998
   107  0000                     _TXREG	set	4013
   108  0000                     _RCSTAbits	set	4011
   109  0000                     _TXSTAbits	set	4012
   110  0000                     _SPBRG	set	4015
   111  0000                     _PORTEbits	set	3972
   112  0000                     _TRISE	set	3990
   113  0000                     _TRISD	set	3989
   114  0000                     _TRISC	set	3988
   115  0000                     _TRISB	set	3987
   116  0000                     _TRISA	set	3986
   117  0000                     _PORTE	set	3972
   118  0000                     _PORTD	set	3971
   119  0000                     _PORTC	set	3970
   120  0000                     _PORTB	set	3969
   121  0000                     _PORTA	set	3968
   122  000611                     STR_8:
   123  000611  0A                 	db	10
   124  000612  49                 	db	73	;'I'
   125  000613  6E                 	db	110	;'n'
   126  000614  63                 	db	99	;'c'
   127  000615  72                 	db	114	;'r'
   128  000616  65                 	db	101	;'e'
   129  000617  6D                 	db	109	;'m'
   130  000618  65                 	db	101	;'e'
   131  000619  6E                 	db	110	;'n'
   132  00061A  74                 	db	116	;'t'
   133  00061B  61                 	db	97	;'a'
   134  00061C  63                 	db	99	;'c'
   135  00061D  61                 	db	97	;'a'
   136  00061E  6F                 	db	111	;'o'
   137  00061F  20                 	db	32
   138  000620  72                 	db	114	;'r'
   139  000621  65                 	db	101	;'e'
   140  000622  61                 	db	97	;'a'
   141  000623  6C                 	db	108	;'l'
   142  000624  69                 	db	105	;'i'
   143  000625  7A                 	db	122	;'z'
   144  000626  61                 	db	97	;'a'
   145  000627  64                 	db	100	;'d'
   146  000628  61                 	db	97	;'a'
   147  000629  00                 	db	0
   148  00062A                     STR_3:
   149  00062A  41                 	db	65	;'A'
   150  00062B  70                 	db	112	;'p'
   151  00062C  65                 	db	101	;'e'
   152  00062D  72                 	db	114	;'r'
   153  00062E  74                 	db	116	;'t'
   154  00062F  65                 	db	101	;'e'
   155  000630  20                 	db	32
   156  000631  2A                 	db	42
   157  000632  20                 	db	32
   158  000633  70                 	db	112	;'p'
   159  000634  61                 	db	97	;'a'
   160  000635  72                 	db	114	;'r'
   161  000636  61                 	db	97	;'a'
   162  000637  00                 	db	0
   163  000638                     STR_1:
   164  000638  49                 	db	73	;'I'
   165  000639  6E                 	db	110	;'n'
   166  00063A  69                 	db	105	;'i'
   167  00063B  63                 	db	99	;'c'
   168  00063C  69                 	db	105	;'i'
   169  00063D  61                 	db	97	;'a'
   170  00063E  6E                 	db	110	;'n'
   171  00063F  64                 	db	100	;'d'
   172  000640  6F                 	db	111	;'o'
   173  000641  2E                 	db	46
   174  000642  2E                 	db	46
   175  000643  2E                 	db	46
   176  000644  00                 	db	0
   177  000645                     STR_7:
   178  000645  4D                 	db	77	;'M'
   179  000646  65                 	db	101	;'e'
   180  000647  64                 	db	100	;'d'
   181  000648  69                 	db	105	;'i'
   182  000649  6E                 	db	110	;'n'
   183  00064A  64                 	db	100	;'d'
   184  00064B  6F                 	db	111	;'o'
   185  00064C  2E                 	db	46
   186  00064D  2E                 	db	46
   187  00064E  2E                 	db	46
   188  00064F  00                 	db	0
   189  000650                     STR_5:
   190  000650  62                 	db	98	;'b'
   191  000651  61                 	db	97	;'a'
   192  000652  74                 	db	116	;'t'
   193  000653  69                 	db	105	;'i'
   194  000654  64                 	db	100	;'d'
   195  000655  61                 	db	97	;'a'
   196  000656  73                 	db	115	;'s'
   197  000657  20                 	db	32
   198  000658  64                 	db	100	;'d'
   199  000659  6F                 	db	111	;'o'
   200  00065A  00                 	db	0
   201  00065B                     STR_4:
   202  00065B  73                 	db	115	;'s'
   203  00065C  69                 	db	105	;'i'
   204  00065D  6D                 	db	109	;'m'
   205  00065E  75                 	db	117	;'u'
   206  00065F  6C                 	db	108	;'l'
   207  000660  61                 	db	97	;'a'
   208  000661  72                 	db	114	;'r'
   209  000662  20                 	db	32
   210  000663  61                 	db	97	;'a'
   211  000664  73                 	db	115	;'s'
   212  000665  00                 	db	0
   213  000666                     STR_9:
   214  000666  50                 	db	80	;'P'
   215  000667  72                 	db	114	;'r'
   216  000668  65                 	db	101	;'e'
   217  000669  73                 	db	115	;'s'
   218  00066A  73                 	db	115	;'s'
   219  00066B  69                 	db	105	;'i'
   220  00066C  6F                 	db	111	;'o'
   221  00066D  6E                 	db	110	;'n'
   222  00066E  65                 	db	101	;'e'
   223  00066F  00                 	db	0
   224  000670                     STR_2:
   225  000670  41                 	db	65	;'A'
   226  000671  67                 	db	103	;'g'
   227  000672  75                 	db	117	;'u'
   228  000673  61                 	db	97	;'a'
   229  000674  72                 	db	114	;'r'
   230  000675  64                 	db	100	;'d'
   231  000676  65                 	db	101	;'e'
   232  000677  00                 	db	0
   233  000678                     STR_6:
   234  000678  63                 	db	99	;'c'
   235  000679  6F                 	db	111	;'o'
   236  00067A  72                 	db	114	;'r'
   237  00067B  61                 	db	97	;'a'
   238  00067C  63                 	db	99	;'c'
   239  00067D  61                 	db	97	;'a'
   240  00067E  6F                 	db	111	;'o'
   241  00067F  00                 	db	0
   242  000680                     STR_10:
   243  000680  72                 	db	114	;'r'
   244  000681  65                 	db	101	;'e'
   245  000682  73                 	db	115	;'s'
   246  000683  65                 	db	101	;'e'
   247  000684  74                 	db	116	;'t'
   248  000685  00                 	db	0
   249  000686  00                 	db	0	; dummy byte at the end
   250  0000                     
   251                           ; #config settings
   252                           
   253                           	psect	cinit
   254  0015F6                     __pcinit:
   255                           	callstack 0
   256  0015F6                     start_initialization:
   257                           	callstack 0
   258  0015F6                     __initialization:
   259                           	callstack 0
   260                           
   261                           ; Clear objects allocated to COMRAM (12 bytes)
   262  0015F6  EE00  F01D         	lfsr	0,__pbssCOMRAM
   263  0015FA  0E0C               	movlw	12
   264  0015FC                     clear_0:
   265  0015FC  6AEE               	clrf	postinc0,c
   266  0015FE  06E8               	decf	wreg,f,c
   267  001600  E1FD               	bnz	clear_0
   268  001602                     end_of_initialization:
   269                           	callstack 0
   270  001602                     __end_of__initialization:
   271                           	callstack 0
   272  001602  0E00               	movlw	low (__Lmediumconst shr (0+16))
   273  001604  6EF8               	movwf	tblptru,c
   274  001606  0100               	movlb	0
   275  001608  EF92  F005         	goto	_main	;jump to C main() function
   276                           
   277                           	psect	bssCOMRAM
   278  00001D                     __pbssCOMRAM:
   279                           	callstack 0
   280  00001D                     kpDebounce@valorAntigo:
   281                           	callstack 0
   282  00001D                     	ds	2
   283  00001F                     kpDebounce@valorNovo:
   284                           	callstack 0
   285  00001F                     	ds	2
   286  000021                     _valor:
   287                           	callstack 0
   288  000021                     	ds	2
   289  000023                     _v3:
   290                           	callstack 0
   291  000023                     	ds	1
   292  000024                     _v2:
   293                           	callstack 0
   294  000024                     	ds	1
   295  000025                     _v1:
   296                           	callstack 0
   297  000025                     	ds	1
   298  000026                     _v0:
   299                           	callstack 0
   300  000026                     	ds	1
   301  000027                     _display:
   302                           	callstack 0
   303  000027                     	ds	1
   304  000028                     kpDebounce@tempo:
   305                           	callstack 0
   306  000028                     	ds	1
   307                           
   308                           	psect	cstackCOMRAM
   309  000001                     __pcstackCOMRAM:
   310                           	callstack 0
   311  000001                     ??_kpDebounce:
   312  000001                     ?_kpRead:
   313                           	callstack 0
   314  000001                     ?___wmul:
   315                           	callstack 0
   316  000001                     ?___awdiv:
   317                           	callstack 0
   318  000001                     ?___aldiv:
   319                           	callstack 0
   320  000001                     lcd_wr@val:
   321                           	callstack 0
   322  000001                     serial_tx@val:
   323                           	callstack 0
   324  000001                     atraso_ms@valor:
   325                           	callstack 0
   326  000001                     digitalWrite@pin:
   327                           	callstack 0
   328  000001                     pinMode@pin:
   329                           	callstack 0
   330  000001                     ___wmul@multiplier:
   331                           	callstack 0
   332  000001                     ___awdiv@dividend:
   333                           	callstack 0
   334  000001                     ___aldiv@dividend:
   335                           	callstack 0
   336                           
   337                           ; 4 bytes @ 0x0
   338  000001                     	ds	1
   339  000002                     serial_tx_str@val:
   340                           	callstack 0
   341                           
   342                           ; 2 bytes @ 0x1
   343  000002                     	ds	1
   344  000003                     atraso_ms@i:
   345                           	callstack 0
   346  000003                     digitalWrite@value:
   347                           	callstack 0
   348  000003                     pinMode@type:
   349                           	callstack 0
   350  000003                     ___wmul@multiplicand:
   351                           	callstack 0
   352  000003                     ___awdiv@divisor:
   353                           	callstack 0
   354                           
   355                           ; 2 bytes @ 0x2
   356  000003                     	ds	1
   357  000004                     ??_serial_tx_str:
   358                           
   359                           ; 1 bytes @ 0x3
   360  000004                     	ds	1
   361  000005                     ??_digitalWrite:
   362  000005                     ??_pinMode:
   363  000005                     atraso_ms@j:
   364                           	callstack 0
   365  000005                     ___awdiv@counter:
   366                           	callstack 0
   367  000005                     ___wmul@product:
   368                           	callstack 0
   369  000005                     ___aldiv@divisor:
   370                           	callstack 0
   371                           
   372                           ; 4 bytes @ 0x4
   373  000005                     	ds	1
   374  000006                     lcd_cmd@val:
   375                           	callstack 0
   376  000006                     lcd_dat@val:
   377                           	callstack 0
   378  000006                     serial_tx_str@i:
   379                           	callstack 0
   380  000006                     kpDebounce@old_D:
   381                           	callstack 0
   382  000006                     ___awdiv@sign:
   383                           	callstack 0
   384                           
   385                           ; 1 bytes @ 0x5
   386  000006                     	ds	1
   387  000007                     ??_ssdUpdate:
   388  000007                     lcd_str@str:
   389                           	callstack 0
   390  000007                     kpDebounce@k:
   391                           	callstack 0
   392  000007                     ___awdiv@quotient:
   393                           	callstack 0
   394                           
   395                           ; 2 bytes @ 0x6
   396  000007                     	ds	2
   397  000009                     ??_lcd_str:
   398  000009                     ?___awmod:
   399                           	callstack 0
   400  000009                     kpDebounce@j:
   401                           	callstack 0
   402  000009                     ___aldiv@counter:
   403                           	callstack 0
   404  000009                     ___awmod@dividend:
   405                           	callstack 0
   406                           
   407                           ; 2 bytes @ 0x8
   408  000009                     	ds	1
   409  00000A                     kpDebounce@i:
   410                           	callstack 0
   411  00000A                     ___aldiv@sign:
   412                           	callstack 0
   413                           
   414                           ; 1 bytes @ 0x9
   415  00000A                     	ds	1
   416  00000B                     lcd_str@i:
   417                           	callstack 0
   418  00000B                     ___awmod@divisor:
   419                           	callstack 0
   420  00000B                     ___aldiv@quotient:
   421                           	callstack 0
   422                           
   423                           ; 4 bytes @ 0xA
   424  00000B                     	ds	1
   425  00000C                     
   426                           ; 1 bytes @ 0xB
   427  00000C                     	ds	1
   428  00000D                     ___awmod@counter:
   429                           	callstack 0
   430                           
   431                           ; 1 bytes @ 0xC
   432  00000D                     	ds	1
   433  00000E                     ___awmod@sign:
   434                           	callstack 0
   435                           
   436                           ; 1 bytes @ 0xD
   437  00000E                     	ds	1
   438  00000F                     ssdDigit@pos:
   439                           	callstack 0
   440  00000F                     pwmFrequency@freq:
   441                           	callstack 0
   442                           
   443                           ; 2 bytes @ 0xE
   444  00000F                     	ds	1
   445  000010                     ssdDigit@val:
   446                           	callstack 0
   447                           
   448                           ; 1 bytes @ 0xF
   449  000010                     	ds	1
   450  000011                     main@tempo:
   451                           	callstack 0
   452                           
   453                           ; 2 bytes @ 0x10
   454  000011                     	ds	2
   455  000013                     main@tecla:
   456                           	callstack 0
   457                           
   458                           ; 2 bytes @ 0x12
   459  000013                     	ds	2
   460  000015                     main@l:
   461                           	callstack 0
   462                           
   463                           ; 2 bytes @ 0x14
   464  000015                     	ds	2
   465  000017                     main@k:
   466                           	callstack 0
   467                           
   468                           ; 1 bytes @ 0x16
   469  000017                     	ds	1
   470  000018                     main@result:
   471                           	callstack 0
   472                           
   473                           ; 2 bytes @ 0x17
   474  000018                     	ds	2
   475  00001A                     main@beat:
   476                           	callstack 0
   477                           
   478                           ; 2 bytes @ 0x19
   479  00001A                     	ds	2
   480  00001C                     main@i:
   481                           	callstack 0
   482                           
   483                           ; 1 bytes @ 0x1B
   484  00001C                     	ds	1
   485                           
   486 ;;
   487 ;;Main: autosize = 0, tempsize = 0, incstack = 0, save=0
   488 ;;
   489 ;; *************** function _main *****************
   490 ;; Defined at:
   491 ;;		line 56 in file "C:/Programacao/Embarcada/ProjetoFinal_RafaelHadzic_2020010302.X/main.c"
   492 ;; Parameters:    Size  Location     Type
   493 ;;		None
   494 ;; Auto vars:     Size  Location     Type
   495 ;;  beat            2   25[COMRAM] int 
   496 ;;  result          2   23[COMRAM] int 
   497 ;;  l               2   20[COMRAM] int 
   498 ;;  tecla           2   18[COMRAM] unsigned int 
   499 ;;  tempo           2   16[COMRAM] int 
   500 ;;  i               1   27[COMRAM] unsigned char 
   501 ;;  j               1    0        unsigned char 
   502 ;;  k               1   22[COMRAM] unsigned char 
   503 ;; Return value:  Size  Location     Type
   504 ;;                  1    wreg      void 
   505 ;; Registers used:
   506 ;;		wreg, status,2, status,0, tblptrl, tblptrh, tblptru, prodl, prodh, cstack
   507 ;; Tracked objects:
   508 ;;		On entry : 0/0
   509 ;;		On exit  : 0/0
   510 ;;		Unchanged: 0/0
   511 ;; Data sizes:     COMRAM   BANK0   BANK1   BANK2   BANK3   BANK4   BANK5
   512 ;;      Params:         0       0       0       0       0       0       0
   513 ;;      Locals:        12       0       0       0       0       0       0
   514 ;;      Temps:          0       0       0       0       0       0       0
   515 ;;      Totals:        12       0       0       0       0       0       0
   516 ;;Total ram usage:       12 bytes
   517 ;; Hardware stack levels required when called: 4
   518 ;; This function calls:
   519 ;;		___awdiv
   520 ;;		___awmod
   521 ;;		___wmul
   522 ;;		_atraso_ms
   523 ;;		_initial
   524 ;;		_kpDebounce
   525 ;;		_kpInit
   526 ;;		_kpRead
   527 ;;		_lcd_cmd
   528 ;;		_lcd_str
   529 ;;		_pwmFrequency
   530 ;;		_pwmInit
   531 ;;		_serial_init
   532 ;;		_serial_tx_str
   533 ;;		_ssdDigit
   534 ;;		_ssdInit
   535 ;;		_ssdUpdate
   536 ;; This function is called by:
   537 ;;		Startup code after reset
   538 ;; This function uses a non-reentrant model
   539 ;;
   540                           
   541                           	psect	text0
   542  000B24                     __ptext0:
   543                           	callstack 0
   544  000B24                     _main:
   545                           	callstack 27
   546  000B24                     
   547                           ;C:/Programacao/Embarcada/ProjetoFinal_RafaelHadzic_2020010302.X/main.c: 59:     int tem
      +                          po = 0, beat = 0, l;
   548  000B24  0E00               	movlw	0
   549  000B26  6E12               	movwf	(main@tempo+1)^0,c
   550  000B28  0E00               	movlw	0
   551  000B2A  6E11               	movwf	main@tempo^0,c
   552  000B2C  0E00               	movlw	0
   553  000B2E  6E1B               	movwf	(main@beat+1)^0,c
   554  000B30  0E00               	movlw	0
   555  000B32  6E1A               	movwf	main@beat^0,c
   556                           
   557                           ;C:/Programacao/Embarcada/ProjetoFinal_RafaelHadzic_2020010302.X/main.c: 60:     char k,
      +                           j;;C:/Programacao/Embarcada/ProjetoFinal_RafaelHadzic_2020010302.X/main.c: 63:     TRIS
      +                          A = 0xC3;
   558  000B34  0EC3               	movlw	195
   559  000B36  6E92               	movwf	146,c	;volatile
   560                           
   561                           ;C:/Programacao/Embarcada/ProjetoFinal_RafaelHadzic_2020010302.X/main.c: 64:     TRISB =
      +                           0x03;
   562  000B38  0E03               	movlw	3
   563  000B3A  6E93               	movwf	147,c	;volatile
   564                           
   565                           ;C:/Programacao/Embarcada/ProjetoFinal_RafaelHadzic_2020010302.X/main.c: 65:     TRISC =
      +                           0x00;
   566  000B3C  0E00               	movlw	0
   567  000B3E  6E94               	movwf	148,c	;volatile
   568                           
   569                           ;C:/Programacao/Embarcada/ProjetoFinal_RafaelHadzic_2020010302.X/main.c: 66:     TRISD =
      +                           0x00;
   570  000B40  0E00               	movlw	0
   571  000B42  6E95               	movwf	149,c	;volatile
   572                           
   573                           ;C:/Programacao/Embarcada/ProjetoFinal_RafaelHadzic_2020010302.X/main.c: 67:     TRISE =
      +                           0x00;
   574  000B44  0E00               	movlw	0
   575  000B46  6E96               	movwf	150,c	;volatile
   576  000B48                     
   577                           ;C:/Programacao/Embarcada/ProjetoFinal_RafaelHadzic_2020010302.X/main.c: 69:     initial
      +                          ();
   578  000B48  EC05  F009         	call	_initial	;wreg free
   579  000B4C                     
   580                           ;C:/Programacao/Embarcada/ProjetoFinal_RafaelHadzic_2020010302.X/main.c: 70:     lcd_str
      +                          ("Medindo...");
   581  000B4C  0E45               	movlw	low STR_7
   582  000B4E  6E07               	movwf	lcd_str@str^0,c
   583  000B50  0E06               	movlw	high STR_7
   584  000B52  6E08               	movwf	(lcd_str@str+1)^0,c
   585  000B54  EC64  F00A         	call	_lcd_str	;wreg free
   586  000B58                     
   587                           ;C:/Programacao/Embarcada/ProjetoFinal_RafaelHadzic_2020010302.X/main.c: 73:     serial_
      +                          init();
   588  000B58  EC11  F00B         	call	_serial_init	;wreg free
   589  000B5C                     
   590                           ;C:/Programacao/Embarcada/ProjetoFinal_RafaelHadzic_2020010302.X/main.c: 74:     ssdInit
      +                          ();
   591  000B5C  EC11  F00A         	call	_ssdInit	;wreg free
   592  000B60                     
   593                           ;C:/Programacao/Embarcada/ProjetoFinal_RafaelHadzic_2020010302.X/main.c: 75:     kpInit(
      +                          );
   594  000B60  EC2A  F00B         	call	_kpInit	;wreg free
   595  000B64                     
   596                           ;C:/Programacao/Embarcada/ProjetoFinal_RafaelHadzic_2020010302.X/main.c: 76:     pwmInit
      +                          ();
   597  000B64  EC1B  F00B         	call	_pwmInit	;wreg free
   598  000B68                     
   599                           ;C:/Programacao/Embarcada/ProjetoFinal_RafaelHadzic_2020010302.X/main.c: 77:     tecla =
      +                           kpRead();
   600  000B68  EC25  F00B         	call	_kpRead	;wreg free
   601  000B6C  C001  F013         	movff	?_kpRead,main@tecla
   602  000B70  C002  F014         	movff	?_kpRead+1,main@tecla+1
   603                           
   604                           ;C:/Programacao/Embarcada/ProjetoFinal_RafaelHadzic_2020010302.X/main.c: 78:     while (
      +                          tempo < 4000) {
   605  000B74  EF29  F006         	goto	l2234
   606  000B78                     l2184:
   607                           
   608                           ;C:/Programacao/Embarcada/ProjetoFinal_RafaelHadzic_2020010302.X/main.c: 79:         tem
      +                          po++;
   609  000B78  4A11               	infsnz	main@tempo^0,f,c
   610  000B7A  2A12               	incf	(main@tempo+1)^0,f,c
   611  000B7C                     
   612                           ;C:/Programacao/Embarcada/ProjetoFinal_RafaelHadzic_2020010302.X/main.c: 80:         kpD
      +                          ebounce();
   613  000B7C  ECB8  F006         	call	_kpDebounce	;wreg free
   614  000B80                     
   615                           ;C:/Programacao/Embarcada/ProjetoFinal_RafaelHadzic_2020010302.X/main.c: 81:         if 
      +                          (kpRead() != tecla) {
   616  000B80  EC25  F00B         	call	_kpRead	;wreg free
   617  000B84  5013               	movf	main@tecla^0,w,c
   618  000B86  1801               	xorwf	?_kpRead^0,w,c
   619  000B88  E109               	bnz	u1790
   620  000B8A  5014               	movf	(main@tecla+1)^0,w,c
   621  000B8C  1802               	xorwf	(?_kpRead+1)^0,w,c
   622  000B8E  B4D8               	btfsc	status,2,c
   623  000B90  EFCC  F005         	goto	u1791
   624  000B94  EFCE  F005         	goto	u1790
   625  000B98                     u1791:
   626  000B98  EFFE  F005         	goto	l2220
   627  000B9C                     u1790:
   628  000B9C                     
   629                           ;C:/Programacao/Embarcada/ProjetoFinal_RafaelHadzic_2020010302.X/main.c: 82:            
      +                           tecla = kpRead();
   630  000B9C  EC25  F00B         	call	_kpRead	;wreg free
   631  000BA0  C001  F013         	movff	?_kpRead,main@tecla
   632  000BA4  C002  F014         	movff	?_kpRead+1,main@tecla+1
   633                           
   634                           ;C:/Programacao/Embarcada/ProjetoFinal_RafaelHadzic_2020010302.X/main.c: 83:            
      +                           if (((kpRead()) & (1<<(0)))) {
   635  000BA8  EC25  F00B         	call	_kpRead	;wreg free
   636  000BAC  A001               	btfss	?_kpRead^0,0,c
   637  000BAE  EFDB  F005         	goto	u1801
   638  000BB2  EFDD  F005         	goto	u1800
   639  000BB6                     u1801:
   640  000BB6  EFFE  F005         	goto	l2220
   641  000BBA                     u1800:
   642  000BBA                     
   643                           ;C:/Programacao/Embarcada/ProjetoFinal_RafaelHadzic_2020010302.X/main.c: 84:            
      +                               beat++;
   644  000BBA  4A1A               	infsnz	main@beat^0,f,c
   645  000BBC  2A1B               	incf	(main@beat+1)^0,f,c
   646  000BBE                     
   647                           ;C:/Programacao/Embarcada/ProjetoFinal_RafaelHadzic_2020010302.X/main.c: 85:            
      +                               pwmFrequency(100 * 8);
   648  000BBE  0E03               	movlw	3
   649  000BC0  6E10               	movwf	(pwmFrequency@freq+1)^0,c
   650  000BC2  0E20               	movlw	32
   651  000BC4  6E0F               	movwf	pwmFrequency@freq^0,c
   652  000BC6  ECD5  F00A         	call	_pwmFrequency	;wreg free
   653  000BCA                     
   654                           ;C:/Programacao/Embarcada/ProjetoFinal_RafaelHadzic_2020010302.X/main.c: 86:            
      +                               for (k = 0; k < 3; k++) {
   655  000BCA  0E00               	movlw	0
   656  000BCC  6E17               	movwf	main@k^0,c
   657  000BCE                     l2202:
   658  000BCE                     
   659                           ;C:/Programacao/Embarcada/ProjetoFinal_RafaelHadzic_2020010302.X/main.c: 88:            
      +                                       ((TRISC) |= (1<<(1)));
   660  000BCE  8294               	bsf	148,1,c	;volatile
   661  000BD0                     
   662                           ;C:/Programacao/Embarcada/ProjetoFinal_RafaelHadzic_2020010302.X/main.c: 89:            
      +                                       atraso_ms(40);
   663  000BD0  0E00               	movlw	0
   664  000BD2  6E02               	movwf	(atraso_ms@valor+1)^0,c
   665  000BD4  0E28               	movlw	40
   666  000BD6  6E01               	movwf	atraso_ms@valor^0,c
   667  000BD8  EC8C  F00A         	call	_atraso_ms	;wreg free
   668  000BDC                     
   669                           ;C:/Programacao/Embarcada/ProjetoFinal_RafaelHadzic_2020010302.X/main.c: 92:            
      +                                   ((TRISC) &= ~(1<<(1)));
   670  000BDC  9294               	bcf	148,1,c	;volatile
   671                           
   672                           ;C:/Programacao/Embarcada/ProjetoFinal_RafaelHadzic_2020010302.X/main.c: 93:            
      +                               }
   673  000BDE  2A17               	incf	main@k^0,f,c
   674  000BE0  0E02               	movlw	2
   675  000BE2  6417               	cpfsgt	main@k^0,c
   676  000BE4  EFF6  F005         	goto	u1811
   677  000BE8  EFF8  F005         	goto	u1810
   678  000BEC                     u1811:
   679  000BEC  EFE7  F005         	goto	l2202
   680  000BF0                     u1810:
   681  000BF0                     
   682                           ;C:/Programacao/Embarcada/ProjetoFinal_RafaelHadzic_2020010302.X/main.c: 94:            
      +                               serial_tx_str("\nIncrementacao realizada");
   683  000BF0  0E11               	movlw	low STR_8
   684  000BF2  6E02               	movwf	serial_tx_str@val^0,c
   685  000BF4  0E06               	movlw	high STR_8
   686  000BF6  6E03               	movwf	(serial_tx_str@val+1)^0,c
   687  000BF8  EC3C  F00A         	call	_serial_tx_str	;wreg free
   688  000BFC                     l2220:
   689                           
   690                           ;C:/Programacao/Embarcada/ProjetoFinal_RafaelHadzic_2020010302.X/main.c: 97:         ssd
      +                          Digit(beat / 10, 0);
   691  000BFC  0E00               	movlw	0
   692  000BFE  6E0F               	movwf	ssdDigit@pos^0,c
   693  000C00  C01A  F001         	movff	main@beat,___awdiv@dividend
   694  000C04  C01B  F002         	movff	main@beat+1,___awdiv@dividend+1
   695  000C08  0E00               	movlw	0
   696  000C0A  6E04               	movwf	(___awdiv@divisor+1)^0,c
   697  000C0C  0E0A               	movlw	10
   698  000C0E  6E03               	movwf	___awdiv@divisor^0,c
   699  000C10  ECA3  F008         	call	___awdiv	;wreg free
   700  000C14  5001               	movf	?___awdiv^0,w,c
   701  000C16  ECE5  F009         	call	_ssdDigit
   702  000C1A                     
   703                           ;C:/Programacao/Embarcada/ProjetoFinal_RafaelHadzic_2020010302.X/main.c: 98:         ssd
      +                          Digit(beat % 10, 1);
   704  000C1A  0E01               	movlw	1
   705  000C1C  6E0F               	movwf	ssdDigit@pos^0,c
   706  000C1E  C01A  F009         	movff	main@beat,___awmod@dividend
   707  000C22  C01B  F00A         	movff	main@beat+1,___awmod@dividend+1
   708  000C26  0E00               	movlw	0
   709  000C28  6E0C               	movwf	(___awmod@divisor+1)^0,c
   710  000C2A  0E0A               	movlw	10
   711  000C2C  6E0B               	movwf	___awmod@divisor^0,c
   712  000C2E  EC5F  F009         	call	___awmod	;wreg free
   713  000C32  5009               	movf	?___awmod^0,w,c
   714  000C34  ECE5  F009         	call	_ssdDigit
   715                           
   716                           ;C:/Programacao/Embarcada/ProjetoFinal_RafaelHadzic_2020010302.X/main.c: 99:         ssd
      +                          Update();
   717  000C38  EC75  F007         	call	_ssdUpdate	;wreg free
   718  000C3C                     
   719                           ;C:/Programacao/Embarcada/ProjetoFinal_RafaelHadzic_2020010302.X/main.c: 100:         fo
      +                          r (i = 0; i < 255; i++);
   720  000C3C  0E00               	movlw	0
   721  000C3E  6E1C               	movwf	main@i^0,c
   722  000C40                     l2230:
   723  000C40  2A1C               	incf	main@i^0,f,c
   724  000C42  281C               	incf	main@i^0,w,c
   725  000C44  A4D8               	btfss	status,2,c
   726  000C46  EF27  F006         	goto	u1821
   727  000C4A  EF29  F006         	goto	u1820
   728  000C4E                     u1821:
   729  000C4E  EF20  F006         	goto	l2230
   730  000C52                     u1820:
   731  000C52                     l2234:
   732                           
   733                           ;C:/Programacao/Embarcada/ProjetoFinal_RafaelHadzic_2020010302.X/main.c: 78:     while (
      +                          tempo < 4000) {
   734  000C52  BE12               	btfsc	(main@tempo+1)^0,7,c
   735  000C54  EF35  F006         	goto	u1831
   736  000C58  0EA0               	movlw	160
   737  000C5A  5C11               	subwf	main@tempo^0,w,c
   738  000C5C  0E0F               	movlw	15
   739  000C5E  5812               	subwfb	(main@tempo+1)^0,w,c
   740  000C60  A0D8               	btfss	status,0,c
   741  000C62  EF35  F006         	goto	u1831
   742  000C66  EF37  F006         	goto	u1830
   743  000C6A                     u1831:
   744  000C6A  EFBC  F005         	goto	l2184
   745  000C6E                     u1830:
   746  000C6E                     
   747                           ;C:/Programacao/Embarcada/ProjetoFinal_RafaelHadzic_2020010302.X/main.c: 102:     int re
      +                          sult = beat * 6;
   748  000C6E  C01A  F001         	movff	main@beat,___wmul@multiplier
   749  000C72  C01B  F002         	movff	main@beat+1,___wmul@multiplier+1
   750  000C76  0E00               	movlw	0
   751  000C78  6E04               	movwf	(___wmul@multiplicand+1)^0,c
   752  000C7A  0E06               	movlw	6
   753  000C7C  6E03               	movwf	___wmul@multiplicand^0,c
   754  000C7E  ECE8  F00A         	call	___wmul	;wreg free
   755  000C82  C001  F018         	movff	?___wmul,main@result
   756  000C86  C002  F019         	movff	?___wmul+1,main@result+1
   757  000C8A                     
   758                           ;C:/Programacao/Embarcada/ProjetoFinal_RafaelHadzic_2020010302.X/main.c: 104:     for (l
      +                           = 0; l < 500; l++) {
   759  000C8A  0E00               	movlw	0
   760  000C8C  6E16               	movwf	(main@l+1)^0,c
   761  000C8E  0E00               	movlw	0
   762  000C90  6E15               	movwf	main@l^0,c
   763  000C92                     l2244:
   764                           
   765                           ;C:/Programacao/Embarcada/ProjetoFinal_RafaelHadzic_2020010302.X/main.c: 105:         ss
      +                          dInit();
   766  000C92  EC11  F00A         	call	_ssdInit	;wreg free
   767                           
   768                           ;C:/Programacao/Embarcada/ProjetoFinal_RafaelHadzic_2020010302.X/main.c: 106:         ss
      +                          dDigit(result / 100, 0);
   769  000C96  0E00               	movlw	0
   770  000C98  6E0F               	movwf	ssdDigit@pos^0,c
   771  000C9A  C018  F001         	movff	main@result,___awdiv@dividend
   772  000C9E  C019  F002         	movff	main@result+1,___awdiv@dividend+1
   773  000CA2  0E00               	movlw	0
   774  000CA4  6E04               	movwf	(___awdiv@divisor+1)^0,c
   775  000CA6  0E64               	movlw	100
   776  000CA8  6E03               	movwf	___awdiv@divisor^0,c
   777  000CAA  ECA3  F008         	call	___awdiv	;wreg free
   778  000CAE  5001               	movf	?___awdiv^0,w,c
   779  000CB0  ECE5  F009         	call	_ssdDigit
   780                           
   781                           ;C:/Programacao/Embarcada/ProjetoFinal_RafaelHadzic_2020010302.X/main.c: 107:         ss
      +                          dDigit((result / 10) % 10, 1);
   782  000CB4  0E01               	movlw	1
   783  000CB6  6E0F               	movwf	ssdDigit@pos^0,c
   784  000CB8  0E00               	movlw	0
   785  000CBA  6E04               	movwf	(___awdiv@divisor+1)^0,c
   786  000CBC  0E0A               	movlw	10
   787  000CBE  6E03               	movwf	___awdiv@divisor^0,c
   788  000CC0  C018  F001         	movff	main@result,___awdiv@dividend
   789  000CC4  C019  F002         	movff	main@result+1,___awdiv@dividend+1
   790  000CC8  ECA3  F008         	call	___awdiv	;wreg free
   791  000CCC  C001  F009         	movff	?___awdiv,___awmod@dividend
   792  000CD0  C002  F00A         	movff	?___awdiv+1,___awmod@dividend+1
   793  000CD4  0E00               	movlw	0
   794  000CD6  6E0C               	movwf	(___awmod@divisor+1)^0,c
   795  000CD8  0E0A               	movlw	10
   796  000CDA  6E0B               	movwf	___awmod@divisor^0,c
   797  000CDC  EC5F  F009         	call	___awmod	;wreg free
   798  000CE0  5009               	movf	?___awmod^0,w,c
   799  000CE2  ECE5  F009         	call	_ssdDigit
   800                           
   801                           ;C:/Programacao/Embarcada/ProjetoFinal_RafaelHadzic_2020010302.X/main.c: 108:         ss
      +                          dDigit(result % 10, 2);
   802  000CE6  0E02               	movlw	2
   803  000CE8  6E0F               	movwf	ssdDigit@pos^0,c
   804  000CEA  C018  F009         	movff	main@result,___awmod@dividend
   805  000CEE  C019  F00A         	movff	main@result+1,___awmod@dividend+1
   806  000CF2  0E00               	movlw	0
   807  000CF4  6E0C               	movwf	(___awmod@divisor+1)^0,c
   808  000CF6  0E0A               	movlw	10
   809  000CF8  6E0B               	movwf	___awmod@divisor^0,c
   810  000CFA  EC5F  F009         	call	___awmod	;wreg free
   811  000CFE  5009               	movf	?___awmod^0,w,c
   812  000D00  ECE5  F009         	call	_ssdDigit
   813  000D04                     
   814                           ;C:/Programacao/Embarcada/ProjetoFinal_RafaelHadzic_2020010302.X/main.c: 109:         ss
      +                          dUpdate();
   815  000D04  EC75  F007         	call	_ssdUpdate	;wreg free
   816  000D08                     
   817                           ;C:/Programacao/Embarcada/ProjetoFinal_RafaelHadzic_2020010302.X/main.c: 110:         fo
      +                          r (i = 0; i < 255; i++);
   818  000D08  0E00               	movlw	0
   819  000D0A  6E1C               	movwf	main@i^0,c
   820  000D0C                     l2254:
   821  000D0C  2A1C               	incf	main@i^0,f,c
   822  000D0E  281C               	incf	main@i^0,w,c
   823  000D10  A4D8               	btfss	status,2,c
   824  000D12  EF8D  F006         	goto	u1841
   825  000D16  EF8F  F006         	goto	u1840
   826  000D1A                     u1841:
   827  000D1A  EF86  F006         	goto	l2254
   828  000D1E                     u1840:
   829  000D1E                     
   830                           ;C:/Programacao/Embarcada/ProjetoFinal_RafaelHadzic_2020010302.X/main.c: 111:     }
   831  000D1E  4A15               	infsnz	main@l^0,f,c
   832  000D20  2A16               	incf	(main@l+1)^0,f,c
   833  000D22  BE16               	btfsc	(main@l+1)^0,7,c
   834  000D24  EF9D  F006         	goto	u1851
   835  000D28  0EF4               	movlw	244
   836  000D2A  5C15               	subwf	main@l^0,w,c
   837  000D2C  0E01               	movlw	1
   838  000D2E  5816               	subwfb	(main@l+1)^0,w,c
   839  000D30  A0D8               	btfss	status,0,c
   840  000D32  EF9D  F006         	goto	u1851
   841  000D36  EF9F  F006         	goto	u1850
   842  000D3A                     u1851:
   843  000D3A  EF49  F006         	goto	l2244
   844  000D3E                     u1850:
   845  000D3E                     
   846                           ;C:/Programacao/Embarcada/ProjetoFinal_RafaelHadzic_2020010302.X/main.c: 112:     lcd_cm
      +                          d(0x01);
   847  000D3E  0E01               	movlw	1
   848  000D40  ECC0  F00A         	call	_lcd_cmd
   849                           
   850                           ;C:/Programacao/Embarcada/ProjetoFinal_RafaelHadzic_2020010302.X/main.c: 113:     lcd_cm
      +                          d(0x80);
   851  000D44  0E80               	movlw	128
   852  000D46  ECC0  F00A         	call	_lcd_cmd
   853  000D4A                     
   854                           ;C:/Programacao/Embarcada/ProjetoFinal_RafaelHadzic_2020010302.X/main.c: 114:     lcd_st
      +                          r("Pressione");
   855  000D4A  0E66               	movlw	low STR_9
   856  000D4C  6E07               	movwf	lcd_str@str^0,c
   857  000D4E  0E06               	movlw	high STR_9
   858  000D50  6E08               	movwf	(lcd_str@str+1)^0,c
   859  000D52  EC64  F00A         	call	_lcd_str	;wreg free
   860  000D56                     
   861                           ;C:/Programacao/Embarcada/ProjetoFinal_RafaelHadzic_2020010302.X/main.c: 115:     lcd_cm
      +                          d(0xC0);
   862  000D56  0EC0               	movlw	192
   863  000D58  ECC0  F00A         	call	_lcd_cmd
   864                           
   865                           ;C:/Programacao/Embarcada/ProjetoFinal_RafaelHadzic_2020010302.X/main.c: 116:     lcd_st
      +                          r("reset");
   866  000D5C  0E80               	movlw	low STR_10
   867  000D5E  6E07               	movwf	lcd_str@str^0,c
   868  000D60  0E06               	movlw	high STR_10
   869  000D62  6E08               	movwf	(lcd_str@str+1)^0,c
   870  000D64  EC64  F00A         	call	_lcd_str	;wreg free
   871  000D68                     l289:
   872  000D68  EFB4  F006         	goto	l289
   873  000D6C  EF00  F000         	goto	start
   874  000D70                     __end_of_main:
   875                           	callstack 0
   876                           
   877 ;; *************** function _ssdUpdate *****************
   878 ;; Defined at:
   879 ;;		line 54 in file "C:/Programacao/Embarcada/ProjetoFinal_RafaelHadzic_2020010302.X/ssd.c"
   880 ;; Parameters:    Size  Location     Type
   881 ;;		None
   882 ;; Auto vars:     Size  Location     Type
   883 ;;		None
   884 ;; Return value:  Size  Location     Type
   885 ;;                  1    wreg      void 
   886 ;; Registers used:
   887 ;;		wreg, status,2, status,0, tblptrl, tblptrh, tblptru, cstack
   888 ;; Tracked objects:
   889 ;;		On entry : 0/0
   890 ;;		On exit  : 0/0
   891 ;;		Unchanged: 0/0
   892 ;; Data sizes:     COMRAM   BANK0   BANK1   BANK2   BANK3   BANK4   BANK5
   893 ;;      Params:         0       0       0       0       0       0       0
   894 ;;      Locals:         0       0       0       0       0       0       0
   895 ;;      Temps:          2       0       0       0       0       0       0
   896 ;;      Totals:         2       0       0       0       0       0       0
   897 ;;Total ram usage:        2 bytes
   898 ;; Hardware stack levels used: 1
   899 ;; Hardware stack levels required when called: 1
   900 ;; This function calls:
   901 ;;		_digitalWrite
   902 ;; This function is called by:
   903 ;;		_main
   904 ;; This function uses a non-reentrant model
   905 ;;
   906                           
   907                           	psect	text1
   908  000EEA                     __ptext1:
   909                           	callstack 0
   910  000EEA                     _ssdUpdate:
   911                           	callstack 29
   912  000EEA                     
   913                           ;C:/Programacao/Embarcada/ProjetoFinal_RafaelHadzic_2020010302.X/ssd.c: 58:     TRISD= 0
      +                          x00;
   914  000EEA  0E00               	movlw	0
   915  000EEC  6E95               	movwf	149,c	;volatile
   916  000EEE                     
   917                           ;C:/Programacao/Embarcada/ProjetoFinal_RafaelHadzic_2020010302.X/ssd.c: 60:     digitalW
      +                          rite(PIN_A2,0);
   918  000EEE  0E00               	movlw	0
   919  000EF0  6E02               	movwf	(digitalWrite@pin+1)^0,c
   920  000EF2  0E02               	movlw	2
   921  000EF4  6E01               	movwf	digitalWrite@pin^0,c
   922  000EF6  0E00               	movlw	0
   923  000EF8  6E04               	movwf	(digitalWrite@value+1)^0,c
   924  000EFA  0E00               	movlw	0
   925  000EFC  6E03               	movwf	digitalWrite@value^0,c
   926  000EFE  EC44  F003         	call	_digitalWrite	;wreg free
   927  000F02                     
   928                           ;C:/Programacao/Embarcada/ProjetoFinal_RafaelHadzic_2020010302.X/ssd.c: 61:     digitalW
      +                          rite(PIN_A3,0);
   929  000F02  0E00               	movlw	0
   930  000F04  6E02               	movwf	(digitalWrite@pin+1)^0,c
   931  000F06  0E03               	movlw	3
   932  000F08  6E01               	movwf	digitalWrite@pin^0,c
   933  000F0A  0E00               	movlw	0
   934  000F0C  6E04               	movwf	(digitalWrite@value+1)^0,c
   935  000F0E  0E00               	movlw	0
   936  000F10  6E03               	movwf	digitalWrite@value^0,c
   937  000F12  EC44  F003         	call	_digitalWrite	;wreg free
   938  000F16                     
   939                           ;C:/Programacao/Embarcada/ProjetoFinal_RafaelHadzic_2020010302.X/ssd.c: 62:     digitalW
      +                          rite(PIN_A4,0);
   940  000F16  0E00               	movlw	0
   941  000F18  6E02               	movwf	(digitalWrite@pin+1)^0,c
   942  000F1A  0E04               	movlw	4
   943  000F1C  6E01               	movwf	digitalWrite@pin^0,c
   944  000F1E  0E00               	movlw	0
   945  000F20  6E04               	movwf	(digitalWrite@value+1)^0,c
   946  000F22  0E00               	movlw	0
   947  000F24  6E03               	movwf	digitalWrite@value^0,c
   948  000F26  EC44  F003         	call	_digitalWrite	;wreg free
   949  000F2A                     
   950                           ;C:/Programacao/Embarcada/ProjetoFinal_RafaelHadzic_2020010302.X/ssd.c: 63:     digitalW
      +                          rite(PIN_A5,0);
   951  000F2A  0E00               	movlw	0
   952  000F2C  6E02               	movwf	(digitalWrite@pin+1)^0,c
   953  000F2E  0E05               	movlw	5
   954  000F30  6E01               	movwf	digitalWrite@pin^0,c
   955  000F32  0E00               	movlw	0
   956  000F34  6E04               	movwf	(digitalWrite@value+1)^0,c
   957  000F36  0E00               	movlw	0
   958  000F38  6E03               	movwf	digitalWrite@value^0,c
   959  000F3A  EC44  F003         	call	_digitalWrite	;wreg free
   960                           
   961                           ;C:/Programacao/Embarcada/ProjetoFinal_RafaelHadzic_2020010302.X/ssd.c: 66:     PORTD = 
      +                          0x00;
   962  000F3E  0E00               	movlw	0
   963  000F40  6E83               	movwf	131,c	;volatile
   964                           
   965                           ;C:/Programacao/Embarcada/ProjetoFinal_RafaelHadzic_2020010302.X/ssd.c: 69:     switch (
      +                          display)
   966  000F42  EFFF  F007         	goto	l2000
   967  000F46                     l1972:
   968                           
   969                           ;C:/Programacao/Embarcada/ProjetoFinal_RafaelHadzic_2020010302.X/ssd.c: 72:             
      +                          PORTD = valor[v0];
   970  000F46  0E01               	movlw	low _valor@ssd$F394
   971  000F48  2426               	addwf	_v0^0,w,c
   972  000F4A  6EF6               	movwf	tblptrl,c
   973  000F4C  6AF7               	clrf	tblptrh,c
   974  000F4E  0E06               	movlw	high _valor@ssd$F394
   975  000F50  22F7               	addwfc	tblptrh,f,c
   976  000F52                     	if	0	;There are less than 3 active tblptr bytes
   977  000F52                     	endif
   978  000F52  0008               	tblrd		*
   979  000F54  CFF5 FF83          	movff	tablat,3971	;volatile
   980  000F58                     
   981                           ;C:/Programacao/Embarcada/ProjetoFinal_RafaelHadzic_2020010302.X/ssd.c: 73:             
      +                          digitalWrite(PIN_A2,1);
   982  000F58  0E00               	movlw	0
   983  000F5A  6E02               	movwf	(digitalWrite@pin+1)^0,c
   984  000F5C  0E02               	movlw	2
   985  000F5E  6E01               	movwf	digitalWrite@pin^0,c
   986  000F60  0E00               	movlw	0
   987  000F62  6E04               	movwf	(digitalWrite@value+1)^0,c
   988  000F64  0E01               	movlw	1
   989  000F66  6E03               	movwf	digitalWrite@value^0,c
   990  000F68  EC44  F003         	call	_digitalWrite	;wreg free
   991  000F6C                     
   992                           ;C:/Programacao/Embarcada/ProjetoFinal_RafaelHadzic_2020010302.X/ssd.c: 74:             
      +                          display = 1;
   993  000F6C  0E01               	movlw	1
   994  000F6E  6E27               	movwf	_display^0,c
   995                           
   996                           ;C:/Programacao/Embarcada/ProjetoFinal_RafaelHadzic_2020010302.X/ssd.c: 75:             
      +                          break;
   997  000F70  EF1C  F008         	goto	l225
   998  000F74                     l1978:
   999                           
  1000                           ;C:/Programacao/Embarcada/ProjetoFinal_RafaelHadzic_2020010302.X/ssd.c: 78:             
      +                          PORTD = valor[v1];
  1001  000F74  0E01               	movlw	low _valor@ssd$F394
  1002  000F76  2425               	addwf	_v1^0,w,c
  1003  000F78  6EF6               	movwf	tblptrl,c
  1004  000F7A  6AF7               	clrf	tblptrh,c
  1005  000F7C  0E06               	movlw	high _valor@ssd$F394
  1006  000F7E  22F7               	addwfc	tblptrh,f,c
  1007  000F80                     	if	0	;There are less than 3 active tblptr bytes
  1008  000F80                     	endif
  1009  000F80  0008               	tblrd		*
  1010  000F82  CFF5 FF83          	movff	tablat,3971	;volatile
  1011  000F86                     
  1012                           ;C:/Programacao/Embarcada/ProjetoFinal_RafaelHadzic_2020010302.X/ssd.c: 79:             
      +                          digitalWrite(PIN_A3,1);
  1013  000F86  0E00               	movlw	0
  1014  000F88  6E02               	movwf	(digitalWrite@pin+1)^0,c
  1015  000F8A  0E03               	movlw	3
  1016  000F8C  6E01               	movwf	digitalWrite@pin^0,c
  1017  000F8E  0E00               	movlw	0
  1018  000F90  6E04               	movwf	(digitalWrite@value+1)^0,c
  1019  000F92  0E01               	movlw	1
  1020  000F94  6E03               	movwf	digitalWrite@value^0,c
  1021  000F96  EC44  F003         	call	_digitalWrite	;wreg free
  1022  000F9A                     
  1023                           ;C:/Programacao/Embarcada/ProjetoFinal_RafaelHadzic_2020010302.X/ssd.c: 80:             
      +                          display = 2;
  1024  000F9A  0E02               	movlw	2
  1025  000F9C  6E27               	movwf	_display^0,c
  1026                           
  1027                           ;C:/Programacao/Embarcada/ProjetoFinal_RafaelHadzic_2020010302.X/ssd.c: 81:             
      +                          break;
  1028  000F9E  EF1C  F008         	goto	l225
  1029  000FA2                     l1984:
  1030                           
  1031                           ;C:/Programacao/Embarcada/ProjetoFinal_RafaelHadzic_2020010302.X/ssd.c: 84:             
      +                          PORTD = valor[v2];
  1032  000FA2  0E01               	movlw	low _valor@ssd$F394
  1033  000FA4  2424               	addwf	_v2^0,w,c
  1034  000FA6  6EF6               	movwf	tblptrl,c
  1035  000FA8  6AF7               	clrf	tblptrh,c
  1036  000FAA  0E06               	movlw	high _valor@ssd$F394
  1037  000FAC  22F7               	addwfc	tblptrh,f,c
  1038  000FAE                     	if	0	;There are less than 3 active tblptr bytes
  1039  000FAE                     	endif
  1040  000FAE  0008               	tblrd		*
  1041  000FB0  CFF5 FF83          	movff	tablat,3971	;volatile
  1042  000FB4                     
  1043                           ;C:/Programacao/Embarcada/ProjetoFinal_RafaelHadzic_2020010302.X/ssd.c: 85:             
      +                          digitalWrite(PIN_A4,1);
  1044  000FB4  0E00               	movlw	0
  1045  000FB6  6E02               	movwf	(digitalWrite@pin+1)^0,c
  1046  000FB8  0E04               	movlw	4
  1047  000FBA  6E01               	movwf	digitalWrite@pin^0,c
  1048  000FBC  0E00               	movlw	0
  1049  000FBE  6E04               	movwf	(digitalWrite@value+1)^0,c
  1050  000FC0  0E01               	movlw	1
  1051  000FC2  6E03               	movwf	digitalWrite@value^0,c
  1052  000FC4  EC44  F003         	call	_digitalWrite	;wreg free
  1053  000FC8                     
  1054                           ;C:/Programacao/Embarcada/ProjetoFinal_RafaelHadzic_2020010302.X/ssd.c: 86:             
      +                          display = 3;
  1055  000FC8  0E03               	movlw	3
  1056  000FCA  6E27               	movwf	_display^0,c
  1057                           
  1058                           ;C:/Programacao/Embarcada/ProjetoFinal_RafaelHadzic_2020010302.X/ssd.c: 87:             
      +                          break;
  1059  000FCC  EF1C  F008         	goto	l225
  1060  000FD0                     l1990:
  1061                           
  1062                           ;C:/Programacao/Embarcada/ProjetoFinal_RafaelHadzic_2020010302.X/ssd.c: 90:             
      +                          PORTD = valor[v3];
  1063  000FD0  0E01               	movlw	low _valor@ssd$F394
  1064  000FD2  2423               	addwf	_v3^0,w,c
  1065  000FD4  6EF6               	movwf	tblptrl,c
  1066  000FD6  6AF7               	clrf	tblptrh,c
  1067  000FD8  0E06               	movlw	high _valor@ssd$F394
  1068  000FDA  22F7               	addwfc	tblptrh,f,c
  1069  000FDC                     	if	0	;There are less than 3 active tblptr bytes
  1070  000FDC                     	endif
  1071  000FDC  0008               	tblrd		*
  1072  000FDE  CFF5 FF83          	movff	tablat,3971	;volatile
  1073  000FE2                     
  1074                           ;C:/Programacao/Embarcada/ProjetoFinal_RafaelHadzic_2020010302.X/ssd.c: 91:             
      +                          digitalWrite(PIN_A5,1);
  1075  000FE2  0E00               	movlw	0
  1076  000FE4  6E02               	movwf	(digitalWrite@pin+1)^0,c
  1077  000FE6  0E05               	movlw	5
  1078  000FE8  6E01               	movwf	digitalWrite@pin^0,c
  1079  000FEA  0E00               	movlw	0
  1080  000FEC  6E04               	movwf	(digitalWrite@value+1)^0,c
  1081  000FEE  0E01               	movlw	1
  1082  000FF0  6E03               	movwf	digitalWrite@value^0,c
  1083  000FF2  EC44  F003         	call	_digitalWrite	;wreg free
  1084  000FF6                     l1994:
  1085                           
  1086                           ;C:/Programacao/Embarcada/ProjetoFinal_RafaelHadzic_2020010302.X/ssd.c: 92:             
      +                          display = 0;
  1087  000FF6  0E00               	movlw	0
  1088  000FF8  6E27               	movwf	_display^0,c
  1089                           
  1090                           ;C:/Programacao/Embarcada/ProjetoFinal_RafaelHadzic_2020010302.X/ssd.c: 93:             
      +                          break;
  1091  000FFA  EF1C  F008         	goto	l225
  1092  000FFE                     l2000:
  1093  000FFE  5027               	movf	_display^0,w,c
  1094  001000  6E07               	movwf	??_ssdUpdate^0,c
  1095  001002  6A08               	clrf	(??_ssdUpdate+1)^0,c
  1096                           
  1097                           ; Switch on 2 bytes has been partitioned into a top level switch of size 1, and 1 sub-sw
      +                          itches
  1098                           ; Switch size 1, requested type "simple"
  1099                           ; Number of cases is 1, Range of values is 0 to 0
  1100                           ; switch strategies available:
  1101                           ; Name         Instructions Cycles
  1102                           ; simple_byte            4     3 (average)
  1103                           ;	Chosen strategy is simple_byte
  1104  001004  5008               	movf	(??_ssdUpdate+1)^0,w,c
  1105  001006  0A00               	xorlw	0	; case 0
  1106  001008  B4D8               	btfsc	status,2,c
  1107  00100A  EF09  F008         	goto	l2342
  1108  00100E  EFFB  F007         	goto	l1994
  1109  001012                     l2342:
  1110                           
  1111                           ; Switch size 1, requested type "simple"
  1112                           ; Number of cases is 4, Range of values is 0 to 3
  1113                           ; switch strategies available:
  1114                           ; Name         Instructions Cycles
  1115                           ; simple_byte           13     7 (average)
  1116                           ;	Chosen strategy is simple_byte
  1117  001012  5007               	movf	??_ssdUpdate^0,w,c
  1118  001014  0A00               	xorlw	0	; case 0
  1119  001016  B4D8               	btfsc	status,2,c
  1120  001018  EFA3  F007         	goto	l1972
  1121  00101C  0A01               	xorlw	1	; case 1
  1122  00101E  B4D8               	btfsc	status,2,c
  1123  001020  EFBA  F007         	goto	l1978
  1124  001024  0A03               	xorlw	3	; case 2
  1125  001026  B4D8               	btfsc	status,2,c
  1126  001028  EFD1  F007         	goto	l1984
  1127  00102C  0A01               	xorlw	1	; case 3
  1128  00102E  B4D8               	btfsc	status,2,c
  1129  001030  EFE8  F007         	goto	l1990
  1130  001034  EFFB  F007         	goto	l1994
  1131  001038                     l225:
  1132  001038  0012               	return		;funcret
  1133  00103A                     __end_of_ssdUpdate:
  1134                           	callstack 0
  1135                           
  1136 ;; *************** function _digitalWrite *****************
  1137 ;; Defined at:
  1138 ;;		line 14 in file "C:/Programacao/Embarcada/ProjetoFinal_RafaelHadzic_2020010302.X/io.c"
  1139 ;; Parameters:    Size  Location     Type
  1140 ;;  pin             2    0[COMRAM] int 
  1141 ;;  value           2    2[COMRAM] int 
  1142 ;; Auto vars:     Size  Location     Type
  1143 ;;		None
  1144 ;; Return value:  Size  Location     Type
  1145 ;;                  1    wreg      void 
  1146 ;; Registers used:
  1147 ;;		wreg, status,2, status,0
  1148 ;; Tracked objects:
  1149 ;;		On entry : 0/0
  1150 ;;		On exit  : 0/0
  1151 ;;		Unchanged: 0/0
  1152 ;; Data sizes:     COMRAM   BANK0   BANK1   BANK2   BANK3   BANK4   BANK5
  1153 ;;      Params:         4       0       0       0       0       0       0
  1154 ;;      Locals:         0       0       0       0       0       0       0
  1155 ;;      Temps:          2       0       0       0       0       0       0
  1156 ;;      Totals:         6       0       0       0       0       0       0
  1157 ;;Total ram usage:        6 bytes
  1158 ;; Hardware stack levels used: 1
  1159 ;; This function calls:
  1160 ;;		Nothing
  1161 ;; This function is called by:
  1162 ;;		_ssdUpdate
  1163 ;;		_lcdCommand
  1164 ;;		_lcdData
  1165 ;; This function uses a non-reentrant model
  1166 ;;
  1167                           
  1168                           	psect	text2
  1169  000688                     __ptext2:
  1170                           	callstack 0
  1171  000688                     _digitalWrite:
  1172                           	callstack 29
  1173  000688                     
  1174                           ;C:/Programacao/Embarcada/ProjetoFinal_RafaelHadzic_2020010302.X/io.c: 16:     if(pin <8
      +                          ){
  1175  000688  BE02               	btfsc	(digitalWrite@pin+1)^0,7,c
  1176  00068A  EF52  F003         	goto	u1070
  1177  00068E  5002               	movf	(digitalWrite@pin+1)^0,w,c
  1178  000690  E107               	bnz	u1071
  1179  000692  0E08               	movlw	8
  1180  000694  5C01               	subwf	digitalWrite@pin^0,w,c
  1181  000696  B0D8               	btfsc	status,0,c
  1182  000698  EF50  F003         	goto	u1071
  1183  00069C  EF52  F003         	goto	u1070
  1184  0006A0                     u1071:
  1185  0006A0  EF7C  F003         	goto	l1806
  1186  0006A4                     u1070:
  1187  0006A4                     
  1188                           ;C:/Programacao/Embarcada/ProjetoFinal_RafaelHadzic_2020010302.X/io.c: 17:         if (v
      +                          alue){ ((PORTA) |= (1<<(pin)));}
  1189  0006A4  5003               	movf	digitalWrite@value^0,w,c
  1190  0006A6  1004               	iorwf	(digitalWrite@value+1)^0,w,c
  1191  0006A8  B4D8               	btfsc	status,2,c
  1192  0006AA  EF59  F003         	goto	u1081
  1193  0006AE  EF5B  F003         	goto	u1080
  1194  0006B2                     u1081:
  1195  0006B2  EF6B  F003         	goto	l1804
  1196  0006B6                     u1080:
  1197  0006B6  C001  F005         	movff	digitalWrite@pin,??_digitalWrite
  1198  0006BA  0E01               	movlw	1
  1199  0006BC  6E06               	movwf	(??_digitalWrite+1)^0,c
  1200  0006BE  2A05               	incf	??_digitalWrite^0,f,c
  1201  0006C0  EF64  F003         	goto	u1094
  1202  0006C4                     u1095:
  1203  0006C4  90D8               	bcf	status,0,c
  1204  0006C6  3606               	rlcf	(??_digitalWrite+1)^0,f,c
  1205  0006C8                     u1094:
  1206  0006C8  2E05               	decfsz	??_digitalWrite^0,f,c
  1207  0006CA  EF62  F003         	goto	u1095
  1208  0006CE  5006               	movf	(??_digitalWrite+1)^0,w,c
  1209  0006D0  1280               	iorwf	128,f,c	;volatile
  1210  0006D2  EF6A  F004         	goto	l50
  1211  0006D6                     l1804:
  1212  0006D6  C001  F005         	movff	digitalWrite@pin,??_digitalWrite
  1213  0006DA  0E01               	movlw	1
  1214  0006DC  6E06               	movwf	(??_digitalWrite+1)^0,c
  1215  0006DE  2A05               	incf	??_digitalWrite^0,f,c
  1216  0006E0  EF74  F003         	goto	u1104
  1217  0006E4                     u1105:
  1218  0006E4  90D8               	bcf	status,0,c
  1219  0006E6  3606               	rlcf	(??_digitalWrite+1)^0,f,c
  1220  0006E8                     u1104:
  1221  0006E8  2E05               	decfsz	??_digitalWrite^0,f,c
  1222  0006EA  EF72  F003         	goto	u1105
  1223  0006EE  5006               	movf	(??_digitalWrite+1)^0,w,c
  1224  0006F0  0AFF               	xorlw	255
  1225  0006F2  1680               	andwf	128,f,c	;volatile
  1226  0006F4  EF6A  F004         	goto	l50
  1227  0006F8                     l1806:
  1228  0006F8  BE02               	btfsc	(digitalWrite@pin+1)^0,7,c
  1229  0006FA  EF8A  F003         	goto	u1110
  1230  0006FE  5002               	movf	(digitalWrite@pin+1)^0,w,c
  1231  000700  E107               	bnz	u1111
  1232  000702  0E10               	movlw	16
  1233  000704  5C01               	subwf	digitalWrite@pin^0,w,c
  1234  000706  B0D8               	btfsc	status,0,c
  1235  000708  EF88  F003         	goto	u1111
  1236  00070C  EF8A  F003         	goto	u1110
  1237  000710                     u1111:
  1238  000710  EFB8  F003         	goto	l1814
  1239  000714                     u1110:
  1240  000714                     
  1241                           ;C:/Programacao/Embarcada/ProjetoFinal_RafaelHadzic_2020010302.X/io.c: 20:         pin -
      +                          =8;
  1242  000714  0EF8               	movlw	248
  1243  000716  2601               	addwf	digitalWrite@pin^0,f,c
  1244  000718  0EFF               	movlw	255
  1245  00071A  2202               	addwfc	(digitalWrite@pin+1)^0,f,c
  1246                           
  1247                           ;C:/Programacao/Embarcada/ProjetoFinal_RafaelHadzic_2020010302.X/io.c: 21:         if (v
      +                          alue){ ((PORTB) |= (1<<(pin)));}
  1248  00071C  5003               	movf	digitalWrite@value^0,w,c
  1249  00071E  1004               	iorwf	(digitalWrite@value+1)^0,w,c
  1250  000720  B4D8               	btfsc	status,2,c
  1251  000722  EF95  F003         	goto	u1121
  1252  000726  EF97  F003         	goto	u1120
  1253  00072A                     u1121:
  1254  00072A  EFA7  F003         	goto	l1812
  1255  00072E                     u1120:
  1256  00072E  C001  F005         	movff	digitalWrite@pin,??_digitalWrite
  1257  000732  0E01               	movlw	1
  1258  000734  6E06               	movwf	(??_digitalWrite+1)^0,c
  1259  000736  2A05               	incf	??_digitalWrite^0,f,c
  1260  000738  EFA0  F003         	goto	u1134
  1261  00073C                     u1135:
  1262  00073C  90D8               	bcf	status,0,c
  1263  00073E  3606               	rlcf	(??_digitalWrite+1)^0,f,c
  1264  000740                     u1134:
  1265  000740  2E05               	decfsz	??_digitalWrite^0,f,c
  1266  000742  EF9E  F003         	goto	u1135
  1267  000746  5006               	movf	(??_digitalWrite+1)^0,w,c
  1268  000748  1281               	iorwf	129,f,c	;volatile
  1269  00074A  EF6A  F004         	goto	l50
  1270  00074E                     l1812:
  1271  00074E  C001  F005         	movff	digitalWrite@pin,??_digitalWrite
  1272  000752  0E01               	movlw	1
  1273  000754  6E06               	movwf	(??_digitalWrite+1)^0,c
  1274  000756  2A05               	incf	??_digitalWrite^0,f,c
  1275  000758  EFB0  F003         	goto	u1144
  1276  00075C                     u1145:
  1277  00075C  90D8               	bcf	status,0,c
  1278  00075E  3606               	rlcf	(??_digitalWrite+1)^0,f,c
  1279  000760                     u1144:
  1280  000760  2E05               	decfsz	??_digitalWrite^0,f,c
  1281  000762  EFAE  F003         	goto	u1145
  1282  000766  5006               	movf	(??_digitalWrite+1)^0,w,c
  1283  000768  0AFF               	xorlw	255
  1284  00076A  1681               	andwf	129,f,c	;volatile
  1285  00076C  EF6A  F004         	goto	l50
  1286  000770                     l1814:
  1287  000770  BE02               	btfsc	(digitalWrite@pin+1)^0,7,c
  1288  000772  EFC6  F003         	goto	u1150
  1289  000776  5002               	movf	(digitalWrite@pin+1)^0,w,c
  1290  000778  E107               	bnz	u1151
  1291  00077A  0E18               	movlw	24
  1292  00077C  5C01               	subwf	digitalWrite@pin^0,w,c
  1293  00077E  B0D8               	btfsc	status,0,c
  1294  000780  EFC4  F003         	goto	u1151
  1295  000784  EFC6  F003         	goto	u1150
  1296  000788                     u1151:
  1297  000788  EFF4  F003         	goto	l1822
  1298  00078C                     u1150:
  1299  00078C                     
  1300                           ;C:/Programacao/Embarcada/ProjetoFinal_RafaelHadzic_2020010302.X/io.c: 24:         pin -
      +                          =16;
  1301  00078C  0EF0               	movlw	240
  1302  00078E  2601               	addwf	digitalWrite@pin^0,f,c
  1303  000790  0EFF               	movlw	255
  1304  000792  2202               	addwfc	(digitalWrite@pin+1)^0,f,c
  1305                           
  1306                           ;C:/Programacao/Embarcada/ProjetoFinal_RafaelHadzic_2020010302.X/io.c: 25:         if (v
      +                          alue){ ((PORTC) |= (1<<(pin)));}
  1307  000794  5003               	movf	digitalWrite@value^0,w,c
  1308  000796  1004               	iorwf	(digitalWrite@value+1)^0,w,c
  1309  000798  B4D8               	btfsc	status,2,c
  1310  00079A  EFD1  F003         	goto	u1161
  1311  00079E  EFD3  F003         	goto	u1160
  1312  0007A2                     u1161:
  1313  0007A2  EFE3  F003         	goto	l1820
  1314  0007A6                     u1160:
  1315  0007A6  C001  F005         	movff	digitalWrite@pin,??_digitalWrite
  1316  0007AA  0E01               	movlw	1
  1317  0007AC  6E06               	movwf	(??_digitalWrite+1)^0,c
  1318  0007AE  2A05               	incf	??_digitalWrite^0,f,c
  1319  0007B0  EFDC  F003         	goto	u1174
  1320  0007B4                     u1175:
  1321  0007B4  90D8               	bcf	status,0,c
  1322  0007B6  3606               	rlcf	(??_digitalWrite+1)^0,f,c
  1323  0007B8                     u1174:
  1324  0007B8  2E05               	decfsz	??_digitalWrite^0,f,c
  1325  0007BA  EFDA  F003         	goto	u1175
  1326  0007BE  5006               	movf	(??_digitalWrite+1)^0,w,c
  1327  0007C0  1282               	iorwf	130,f,c	;volatile
  1328  0007C2  EF6A  F004         	goto	l50
  1329  0007C6                     l1820:
  1330  0007C6  C001  F005         	movff	digitalWrite@pin,??_digitalWrite
  1331  0007CA  0E01               	movlw	1
  1332  0007CC  6E06               	movwf	(??_digitalWrite+1)^0,c
  1333  0007CE  2A05               	incf	??_digitalWrite^0,f,c
  1334  0007D0  EFEC  F003         	goto	u1184
  1335  0007D4                     u1185:
  1336  0007D4  90D8               	bcf	status,0,c
  1337  0007D6  3606               	rlcf	(??_digitalWrite+1)^0,f,c
  1338  0007D8                     u1184:
  1339  0007D8  2E05               	decfsz	??_digitalWrite^0,f,c
  1340  0007DA  EFEA  F003         	goto	u1185
  1341  0007DE  5006               	movf	(??_digitalWrite+1)^0,w,c
  1342  0007E0  0AFF               	xorlw	255
  1343  0007E2  1682               	andwf	130,f,c	;volatile
  1344  0007E4  EF6A  F004         	goto	l50
  1345  0007E8                     l1822:
  1346  0007E8  BE02               	btfsc	(digitalWrite@pin+1)^0,7,c
  1347  0007EA  EF02  F004         	goto	u1190
  1348  0007EE  5002               	movf	(digitalWrite@pin+1)^0,w,c
  1349  0007F0  E107               	bnz	u1191
  1350  0007F2  0E20               	movlw	32
  1351  0007F4  5C01               	subwf	digitalWrite@pin^0,w,c
  1352  0007F6  B0D8               	btfsc	status,0,c
  1353  0007F8  EF00  F004         	goto	u1191
  1354  0007FC  EF02  F004         	goto	u1190
  1355  000800                     u1191:
  1356  000800  EF30  F004         	goto	l1830
  1357  000804                     u1190:
  1358  000804                     
  1359                           ;C:/Programacao/Embarcada/ProjetoFinal_RafaelHadzic_2020010302.X/io.c: 28:         pin -
      +                          =24;
  1360  000804  0EE8               	movlw	232
  1361  000806  2601               	addwf	digitalWrite@pin^0,f,c
  1362  000808  0EFF               	movlw	255
  1363  00080A  2202               	addwfc	(digitalWrite@pin+1)^0,f,c
  1364                           
  1365                           ;C:/Programacao/Embarcada/ProjetoFinal_RafaelHadzic_2020010302.X/io.c: 29:         if (v
      +                          alue){ ((PORTD) |= (1<<(pin)));}
  1366  00080C  5003               	movf	digitalWrite@value^0,w,c
  1367  00080E  1004               	iorwf	(digitalWrite@value+1)^0,w,c
  1368  000810  B4D8               	btfsc	status,2,c
  1369  000812  EF0D  F004         	goto	u1201
  1370  000816  EF0F  F004         	goto	u1200
  1371  00081A                     u1201:
  1372  00081A  EF1F  F004         	goto	l1828
  1373  00081E                     u1200:
  1374  00081E  C001  F005         	movff	digitalWrite@pin,??_digitalWrite
  1375  000822  0E01               	movlw	1
  1376  000824  6E06               	movwf	(??_digitalWrite+1)^0,c
  1377  000826  2A05               	incf	??_digitalWrite^0,f,c
  1378  000828  EF18  F004         	goto	u1214
  1379  00082C                     u1215:
  1380  00082C  90D8               	bcf	status,0,c
  1381  00082E  3606               	rlcf	(??_digitalWrite+1)^0,f,c
  1382  000830                     u1214:
  1383  000830  2E05               	decfsz	??_digitalWrite^0,f,c
  1384  000832  EF16  F004         	goto	u1215
  1385  000836  5006               	movf	(??_digitalWrite+1)^0,w,c
  1386  000838  1283               	iorwf	131,f,c	;volatile
  1387  00083A  EF6A  F004         	goto	l50
  1388  00083E                     l1828:
  1389  00083E  C001  F005         	movff	digitalWrite@pin,??_digitalWrite
  1390  000842  0E01               	movlw	1
  1391  000844  6E06               	movwf	(??_digitalWrite+1)^0,c
  1392  000846  2A05               	incf	??_digitalWrite^0,f,c
  1393  000848  EF28  F004         	goto	u1224
  1394  00084C                     u1225:
  1395  00084C  90D8               	bcf	status,0,c
  1396  00084E  3606               	rlcf	(??_digitalWrite+1)^0,f,c
  1397  000850                     u1224:
  1398  000850  2E05               	decfsz	??_digitalWrite^0,f,c
  1399  000852  EF26  F004         	goto	u1225
  1400  000856  5006               	movf	(??_digitalWrite+1)^0,w,c
  1401  000858  0AFF               	xorlw	255
  1402  00085A  1683               	andwf	131,f,c	;volatile
  1403  00085C  EF6A  F004         	goto	l50
  1404  000860                     l1830:
  1405  000860  BE02               	btfsc	(digitalWrite@pin+1)^0,7,c
  1406  000862  EF3E  F004         	goto	u1230
  1407  000866  5002               	movf	(digitalWrite@pin+1)^0,w,c
  1408  000868  E107               	bnz	u1231
  1409  00086A  0E28               	movlw	40
  1410  00086C  5C01               	subwf	digitalWrite@pin^0,w,c
  1411  00086E  B0D8               	btfsc	status,0,c
  1412  000870  EF3C  F004         	goto	u1231
  1413  000874  EF3E  F004         	goto	u1230
  1414  000878                     u1231:
  1415  000878  EF6A  F004         	goto	l50
  1416  00087C                     u1230:
  1417  00087C                     
  1418                           ;C:/Programacao/Embarcada/ProjetoFinal_RafaelHadzic_2020010302.X/io.c: 32:         pin -
      +                          =32;
  1419  00087C  0EE0               	movlw	224
  1420  00087E  2601               	addwf	digitalWrite@pin^0,f,c
  1421  000880  0EFF               	movlw	255
  1422  000882  2202               	addwfc	(digitalWrite@pin+1)^0,f,c
  1423                           
  1424                           ;C:/Programacao/Embarcada/ProjetoFinal_RafaelHadzic_2020010302.X/io.c: 33:         if (v
      +                          alue){ ((PORTE) |= (1<<(pin)));}
  1425  000884  5003               	movf	digitalWrite@value^0,w,c
  1426  000886  1004               	iorwf	(digitalWrite@value+1)^0,w,c
  1427  000888  B4D8               	btfsc	status,2,c
  1428  00088A  EF49  F004         	goto	u1241
  1429  00088E  EF4B  F004         	goto	u1240
  1430  000892                     u1241:
  1431  000892  EF5B  F004         	goto	l1836
  1432  000896                     u1240:
  1433  000896  C001  F005         	movff	digitalWrite@pin,??_digitalWrite
  1434  00089A  0E01               	movlw	1
  1435  00089C  6E06               	movwf	(??_digitalWrite+1)^0,c
  1436  00089E  2A05               	incf	??_digitalWrite^0,f,c
  1437  0008A0  EF54  F004         	goto	u1254
  1438  0008A4                     u1255:
  1439  0008A4  90D8               	bcf	status,0,c
  1440  0008A6  3606               	rlcf	(??_digitalWrite+1)^0,f,c
  1441  0008A8                     u1254:
  1442  0008A8  2E05               	decfsz	??_digitalWrite^0,f,c
  1443  0008AA  EF52  F004         	goto	u1255
  1444  0008AE  5006               	movf	(??_digitalWrite+1)^0,w,c
  1445  0008B0  1284               	iorwf	132,f,c	;volatile
  1446  0008B2  EF6A  F004         	goto	l50
  1447  0008B6                     l1836:
  1448  0008B6  C001  F005         	movff	digitalWrite@pin,??_digitalWrite
  1449  0008BA  0E01               	movlw	1
  1450  0008BC  6E06               	movwf	(??_digitalWrite+1)^0,c
  1451  0008BE  2A05               	incf	??_digitalWrite^0,f,c
  1452  0008C0  EF64  F004         	goto	u1264
  1453  0008C4                     u1265:
  1454  0008C4  90D8               	bcf	status,0,c
  1455  0008C6  3606               	rlcf	(??_digitalWrite+1)^0,f,c
  1456  0008C8                     u1264:
  1457  0008C8  2E05               	decfsz	??_digitalWrite^0,f,c
  1458  0008CA  EF62  F004         	goto	u1265
  1459  0008CE  5006               	movf	(??_digitalWrite+1)^0,w,c
  1460  0008D0  0AFF               	xorlw	255
  1461  0008D2  1684               	andwf	132,f,c	;volatile
  1462  0008D4                     l50:
  1463  0008D4  0012               	return		;funcret
  1464  0008D6                     __end_of_digitalWrite:
  1465                           	callstack 0
  1466                           
  1467 ;; *************** function _ssdInit *****************
  1468 ;; Defined at:
  1469 ;;		line 101 in file "C:/Programacao/Embarcada/ProjetoFinal_RafaelHadzic_2020010302.X/ssd.c"
  1470 ;; Parameters:    Size  Location     Type
  1471 ;;		None
  1472 ;; Auto vars:     Size  Location     Type
  1473 ;;		None
  1474 ;; Return value:  Size  Location     Type
  1475 ;;                  1    wreg      void 
  1476 ;; Registers used:
  1477 ;;		wreg, status,2, status,0, cstack
  1478 ;; Tracked objects:
  1479 ;;		On entry : 0/0
  1480 ;;		On exit  : 0/0
  1481 ;;		Unchanged: 0/0
  1482 ;; Data sizes:     COMRAM   BANK0   BANK1   BANK2   BANK3   BANK4   BANK5
  1483 ;;      Params:         0       0       0       0       0       0       0
  1484 ;;      Locals:         0       0       0       0       0       0       0
  1485 ;;      Temps:          0       0       0       0       0       0       0
  1486 ;;      Totals:         0       0       0       0       0       0       0
  1487 ;;Total ram usage:        0 bytes
  1488 ;; Hardware stack levels used: 1
  1489 ;; Hardware stack levels required when called: 1
  1490 ;; This function calls:
  1491 ;;		_pinMode
  1492 ;; This function is called by:
  1493 ;;		_main
  1494 ;; This function uses a non-reentrant model
  1495 ;;
  1496                           
  1497                           	psect	text3
  1498  001422                     __ptext3:
  1499                           	callstack 0
  1500  001422                     _ssdInit:
  1501                           	callstack 29
  1502  001422                     
  1503                           ;C:/Programacao/Embarcada/ProjetoFinal_RafaelHadzic_2020010302.X/ssd.c: 103:     pinMode
      +                          (PIN_A2, 0);
  1504  001422  0E00               	movlw	0
  1505  001424  6E02               	movwf	(pinMode@pin+1)^0,c
  1506  001426  0E02               	movlw	2
  1507  001428  6E01               	movwf	pinMode@pin^0,c
  1508  00142A  0E00               	movlw	0
  1509  00142C  6E04               	movwf	(pinMode@type+1)^0,c
  1510  00142E  0E00               	movlw	0
  1511  001430  6E03               	movwf	pinMode@type^0,c
  1512  001432  EC6B  F004         	call	_pinMode	;wreg free
  1513                           
  1514                           ;C:/Programacao/Embarcada/ProjetoFinal_RafaelHadzic_2020010302.X/ssd.c: 104:     pinMode
      +                          (PIN_A3, 0);
  1515  001436  0E00               	movlw	0
  1516  001438  6E02               	movwf	(pinMode@pin+1)^0,c
  1517  00143A  0E03               	movlw	3
  1518  00143C  6E01               	movwf	pinMode@pin^0,c
  1519  00143E  0E00               	movlw	0
  1520  001440  6E04               	movwf	(pinMode@type+1)^0,c
  1521  001442  0E00               	movlw	0
  1522  001444  6E03               	movwf	pinMode@type^0,c
  1523  001446  EC6B  F004         	call	_pinMode	;wreg free
  1524                           
  1525                           ;C:/Programacao/Embarcada/ProjetoFinal_RafaelHadzic_2020010302.X/ssd.c: 105:     pinMode
      +                          (PIN_A4, 0);
  1526  00144A  0E00               	movlw	0
  1527  00144C  6E02               	movwf	(pinMode@pin+1)^0,c
  1528  00144E  0E04               	movlw	4
  1529  001450  6E01               	movwf	pinMode@pin^0,c
  1530  001452  0E00               	movlw	0
  1531  001454  6E04               	movwf	(pinMode@type+1)^0,c
  1532  001456  0E00               	movlw	0
  1533  001458  6E03               	movwf	pinMode@type^0,c
  1534  00145A  EC6B  F004         	call	_pinMode	;wreg free
  1535                           
  1536                           ;C:/Programacao/Embarcada/ProjetoFinal_RafaelHadzic_2020010302.X/ssd.c: 106:     pinMode
      +                          (PIN_A5, 0);
  1537  00145E  0E00               	movlw	0
  1538  001460  6E02               	movwf	(pinMode@pin+1)^0,c
  1539  001462  0E05               	movlw	5
  1540  001464  6E01               	movwf	pinMode@pin^0,c
  1541  001466  0E00               	movlw	0
  1542  001468  6E04               	movwf	(pinMode@type+1)^0,c
  1543  00146A  0E00               	movlw	0
  1544  00146C  6E03               	movwf	pinMode@type^0,c
  1545  00146E  EC6B  F004         	call	_pinMode	;wreg free
  1546  001472                     
  1547                           ;C:/Programacao/Embarcada/ProjetoFinal_RafaelHadzic_2020010302.X/ssd.c: 109:     TRISD =
      +                           0x00;
  1548  001472  0E00               	movlw	0
  1549  001474  6E95               	movwf	149,c	;volatile
  1550  001476  0012               	return		;funcret
  1551  001478                     __end_of_ssdInit:
  1552                           	callstack 0
  1553                           
  1554 ;; *************** function _pinMode *****************
  1555 ;; Defined at:
  1556 ;;		line 54 in file "C:/Programacao/Embarcada/ProjetoFinal_RafaelHadzic_2020010302.X/io.c"
  1557 ;; Parameters:    Size  Location     Type
  1558 ;;  pin             2    0[COMRAM] int 
  1559 ;;  type            2    2[COMRAM] int 
  1560 ;; Auto vars:     Size  Location     Type
  1561 ;;		None
  1562 ;; Return value:  Size  Location     Type
  1563 ;;                  1    wreg      void 
  1564 ;; Registers used:
  1565 ;;		wreg, status,2, status,0
  1566 ;; Tracked objects:
  1567 ;;		On entry : 0/0
  1568 ;;		On exit  : 0/0
  1569 ;;		Unchanged: 0/0
  1570 ;; Data sizes:     COMRAM   BANK0   BANK1   BANK2   BANK3   BANK4   BANK5
  1571 ;;      Params:         4       0       0       0       0       0       0
  1572 ;;      Locals:         0       0       0       0       0       0       0
  1573 ;;      Temps:          2       0       0       0       0       0       0
  1574 ;;      Totals:         6       0       0       0       0       0       0
  1575 ;;Total ram usage:        6 bytes
  1576 ;; Hardware stack levels used: 1
  1577 ;; This function calls:
  1578 ;;		Nothing
  1579 ;; This function is called by:
  1580 ;;		_ssdInit
  1581 ;;		_lcdInit
  1582 ;; This function uses a non-reentrant model
  1583 ;;
  1584                           
  1585                           	psect	text4
  1586  0008D6                     __ptext4:
  1587                           	callstack 0
  1588  0008D6                     _pinMode:
  1589                           	callstack 29
  1590  0008D6                     
  1591                           ;C:/Programacao/Embarcada/ProjetoFinal_RafaelHadzic_2020010302.X/io.c: 56:     if(pin <8
      +                          ){
  1592  0008D6  BE02               	btfsc	(pinMode@pin+1)^0,7,c
  1593  0008D8  EF79  F004         	goto	u1270
  1594  0008DC  5002               	movf	(pinMode@pin+1)^0,w,c
  1595  0008DE  E107               	bnz	u1271
  1596  0008E0  0E08               	movlw	8
  1597  0008E2  5C01               	subwf	pinMode@pin^0,w,c
  1598  0008E4  B0D8               	btfsc	status,0,c
  1599  0008E6  EF77  F004         	goto	u1271
  1600  0008EA  EF79  F004         	goto	u1270
  1601  0008EE                     u1271:
  1602  0008EE  EFA3  F004         	goto	l1846
  1603  0008F2                     u1270:
  1604  0008F2                     
  1605                           ;C:/Programacao/Embarcada/ProjetoFinal_RafaelHadzic_2020010302.X/io.c: 57:         if (t
      +                          ype){ ((TRISA) |= (1<<(pin)));}
  1606  0008F2  5003               	movf	pinMode@type^0,w,c
  1607  0008F4  1004               	iorwf	(pinMode@type+1)^0,w,c
  1608  0008F6  B4D8               	btfsc	status,2,c
  1609  0008F8  EF80  F004         	goto	u1281
  1610  0008FC  EF82  F004         	goto	u1280
  1611  000900                     u1281:
  1612  000900  EF92  F004         	goto	l1844
  1613  000904                     u1280:
  1614  000904  C001  F005         	movff	pinMode@pin,??_pinMode
  1615  000908  0E01               	movlw	1
  1616  00090A  6E06               	movwf	(??_pinMode+1)^0,c
  1617  00090C  2A05               	incf	??_pinMode^0,f,c
  1618  00090E  EF8B  F004         	goto	u1294
  1619  000912                     u1295:
  1620  000912  90D8               	bcf	status,0,c
  1621  000914  3606               	rlcf	(??_pinMode+1)^0,f,c
  1622  000916                     u1294:
  1623  000916  2E05               	decfsz	??_pinMode^0,f,c
  1624  000918  EF89  F004         	goto	u1295
  1625  00091C  5006               	movf	(??_pinMode+1)^0,w,c
  1626  00091E  1292               	iorwf	146,f,c	;volatile
  1627  000920  EF91  F005         	goto	l84
  1628  000924                     l1844:
  1629  000924  C001  F005         	movff	pinMode@pin,??_pinMode
  1630  000928  0E01               	movlw	1
  1631  00092A  6E06               	movwf	(??_pinMode+1)^0,c
  1632  00092C  2A05               	incf	??_pinMode^0,f,c
  1633  00092E  EF9B  F004         	goto	u1304
  1634  000932                     u1305:
  1635  000932  90D8               	bcf	status,0,c
  1636  000934  3606               	rlcf	(??_pinMode+1)^0,f,c
  1637  000936                     u1304:
  1638  000936  2E05               	decfsz	??_pinMode^0,f,c
  1639  000938  EF99  F004         	goto	u1305
  1640  00093C  5006               	movf	(??_pinMode+1)^0,w,c
  1641  00093E  0AFF               	xorlw	255
  1642  000940  1692               	andwf	146,f,c	;volatile
  1643  000942  EF91  F005         	goto	l84
  1644  000946                     l1846:
  1645  000946  BE02               	btfsc	(pinMode@pin+1)^0,7,c
  1646  000948  EFB1  F004         	goto	u1310
  1647  00094C  5002               	movf	(pinMode@pin+1)^0,w,c
  1648  00094E  E107               	bnz	u1311
  1649  000950  0E10               	movlw	16
  1650  000952  5C01               	subwf	pinMode@pin^0,w,c
  1651  000954  B0D8               	btfsc	status,0,c
  1652  000956  EFAF  F004         	goto	u1311
  1653  00095A  EFB1  F004         	goto	u1310
  1654  00095E                     u1311:
  1655  00095E  EFDF  F004         	goto	l1854
  1656  000962                     u1310:
  1657  000962                     
  1658                           ;C:/Programacao/Embarcada/ProjetoFinal_RafaelHadzic_2020010302.X/io.c: 60:         if (t
      +                          ype){ ((TRISB) |= (1<<(pin-8)));}
  1659  000962  5003               	movf	pinMode@type^0,w,c
  1660  000964  1004               	iorwf	(pinMode@type+1)^0,w,c
  1661  000966  B4D8               	btfsc	status,2,c
  1662  000968  EFB8  F004         	goto	u1321
  1663  00096C  EFBA  F004         	goto	u1320
  1664  000970                     u1321:
  1665  000970  EFCC  F004         	goto	l1852
  1666  000974                     u1320:
  1667  000974  C001  F005         	movff	pinMode@pin,??_pinMode
  1668  000978  0EF8               	movlw	-8
  1669  00097A  2605               	addwf	??_pinMode^0,f,c
  1670  00097C  0E01               	movlw	1
  1671  00097E  6E06               	movwf	(??_pinMode+1)^0,c
  1672  000980  2A05               	incf	??_pinMode^0,f,c
  1673  000982  EFC5  F004         	goto	u1334
  1674  000986                     u1335:
  1675  000986  90D8               	bcf	status,0,c
  1676  000988  3606               	rlcf	(??_pinMode+1)^0,f,c
  1677  00098A                     u1334:
  1678  00098A  2E05               	decfsz	??_pinMode^0,f,c
  1679  00098C  EFC3  F004         	goto	u1335
  1680  000990  5006               	movf	(??_pinMode+1)^0,w,c
  1681  000992  1293               	iorwf	147,f,c	;volatile
  1682  000994  EF91  F005         	goto	l84
  1683  000998                     l1852:
  1684  000998  C001  F005         	movff	pinMode@pin,??_pinMode
  1685  00099C  0EF8               	movlw	-8
  1686  00099E  2605               	addwf	??_pinMode^0,f,c
  1687  0009A0  0E01               	movlw	1
  1688  0009A2  6E06               	movwf	(??_pinMode+1)^0,c
  1689  0009A4  2A05               	incf	??_pinMode^0,f,c
  1690  0009A6  EFD7  F004         	goto	u1344
  1691  0009AA                     u1345:
  1692  0009AA  90D8               	bcf	status,0,c
  1693  0009AC  3606               	rlcf	(??_pinMode+1)^0,f,c
  1694  0009AE                     u1344:
  1695  0009AE  2E05               	decfsz	??_pinMode^0,f,c
  1696  0009B0  EFD5  F004         	goto	u1345
  1697  0009B4  5006               	movf	(??_pinMode+1)^0,w,c
  1698  0009B6  0AFF               	xorlw	255
  1699  0009B8  1693               	andwf	147,f,c	;volatile
  1700  0009BA  EF91  F005         	goto	l84
  1701  0009BE                     l1854:
  1702  0009BE  BE02               	btfsc	(pinMode@pin+1)^0,7,c
  1703  0009C0  EFED  F004         	goto	u1350
  1704  0009C4  5002               	movf	(pinMode@pin+1)^0,w,c
  1705  0009C6  E107               	bnz	u1351
  1706  0009C8  0E18               	movlw	24
  1707  0009CA  5C01               	subwf	pinMode@pin^0,w,c
  1708  0009CC  B0D8               	btfsc	status,0,c
  1709  0009CE  EFEB  F004         	goto	u1351
  1710  0009D2  EFED  F004         	goto	u1350
  1711  0009D6                     u1351:
  1712  0009D6  EF1B  F005         	goto	l1862
  1713  0009DA                     u1350:
  1714  0009DA                     
  1715                           ;C:/Programacao/Embarcada/ProjetoFinal_RafaelHadzic_2020010302.X/io.c: 63:         if (t
      +                          ype){ ((TRISC) |= (1<<(pin-16)));}
  1716  0009DA  5003               	movf	pinMode@type^0,w,c
  1717  0009DC  1004               	iorwf	(pinMode@type+1)^0,w,c
  1718  0009DE  B4D8               	btfsc	status,2,c
  1719  0009E0  EFF4  F004         	goto	u1361
  1720  0009E4  EFF6  F004         	goto	u1360
  1721  0009E8                     u1361:
  1722  0009E8  EF08  F005         	goto	l1860
  1723  0009EC                     u1360:
  1724  0009EC  C001  F005         	movff	pinMode@pin,??_pinMode
  1725  0009F0  0EF0               	movlw	-16
  1726  0009F2  2605               	addwf	??_pinMode^0,f,c
  1727  0009F4  0E01               	movlw	1
  1728  0009F6  6E06               	movwf	(??_pinMode+1)^0,c
  1729  0009F8  2A05               	incf	??_pinMode^0,f,c
  1730  0009FA  EF01  F005         	goto	u1374
  1731  0009FE                     u1375:
  1732  0009FE  90D8               	bcf	status,0,c
  1733  000A00  3606               	rlcf	(??_pinMode+1)^0,f,c
  1734  000A02                     u1374:
  1735  000A02  2E05               	decfsz	??_pinMode^0,f,c
  1736  000A04  EFFF  F004         	goto	u1375
  1737  000A08  5006               	movf	(??_pinMode+1)^0,w,c
  1738  000A0A  1294               	iorwf	148,f,c	;volatile
  1739  000A0C  EF91  F005         	goto	l84
  1740  000A10                     l1860:
  1741  000A10  C001  F005         	movff	pinMode@pin,??_pinMode
  1742  000A14  0EF0               	movlw	-16
  1743  000A16  2605               	addwf	??_pinMode^0,f,c
  1744  000A18  0E01               	movlw	1
  1745  000A1A  6E06               	movwf	(??_pinMode+1)^0,c
  1746  000A1C  2A05               	incf	??_pinMode^0,f,c
  1747  000A1E  EF13  F005         	goto	u1384
  1748  000A22                     u1385:
  1749  000A22  90D8               	bcf	status,0,c
  1750  000A24  3606               	rlcf	(??_pinMode+1)^0,f,c
  1751  000A26                     u1384:
  1752  000A26  2E05               	decfsz	??_pinMode^0,f,c
  1753  000A28  EF11  F005         	goto	u1385
  1754  000A2C  5006               	movf	(??_pinMode+1)^0,w,c
  1755  000A2E  0AFF               	xorlw	255
  1756  000A30  1694               	andwf	148,f,c	;volatile
  1757  000A32  EF91  F005         	goto	l84
  1758  000A36                     l1862:
  1759  000A36  BE02               	btfsc	(pinMode@pin+1)^0,7,c
  1760  000A38  EF29  F005         	goto	u1390
  1761  000A3C  5002               	movf	(pinMode@pin+1)^0,w,c
  1762  000A3E  E107               	bnz	u1391
  1763  000A40  0E20               	movlw	32
  1764  000A42  5C01               	subwf	pinMode@pin^0,w,c
  1765  000A44  B0D8               	btfsc	status,0,c
  1766  000A46  EF27  F005         	goto	u1391
  1767  000A4A  EF29  F005         	goto	u1390
  1768  000A4E                     u1391:
  1769  000A4E  EF57  F005         	goto	l1870
  1770  000A52                     u1390:
  1771  000A52                     
  1772                           ;C:/Programacao/Embarcada/ProjetoFinal_RafaelHadzic_2020010302.X/io.c: 66:         if (t
      +                          ype){ ((TRISD) |= (1<<(pin-24)));}
  1773  000A52  5003               	movf	pinMode@type^0,w,c
  1774  000A54  1004               	iorwf	(pinMode@type+1)^0,w,c
  1775  000A56  B4D8               	btfsc	status,2,c
  1776  000A58  EF30  F005         	goto	u1401
  1777  000A5C  EF32  F005         	goto	u1400
  1778  000A60                     u1401:
  1779  000A60  EF44  F005         	goto	l1868
  1780  000A64                     u1400:
  1781  000A64  C001  F005         	movff	pinMode@pin,??_pinMode
  1782  000A68  0EE8               	movlw	-24
  1783  000A6A  2605               	addwf	??_pinMode^0,f,c
  1784  000A6C  0E01               	movlw	1
  1785  000A6E  6E06               	movwf	(??_pinMode+1)^0,c
  1786  000A70  2A05               	incf	??_pinMode^0,f,c
  1787  000A72  EF3D  F005         	goto	u1414
  1788  000A76                     u1415:
  1789  000A76  90D8               	bcf	status,0,c
  1790  000A78  3606               	rlcf	(??_pinMode+1)^0,f,c
  1791  000A7A                     u1414:
  1792  000A7A  2E05               	decfsz	??_pinMode^0,f,c
  1793  000A7C  EF3B  F005         	goto	u1415
  1794  000A80  5006               	movf	(??_pinMode+1)^0,w,c
  1795  000A82  1295               	iorwf	149,f,c	;volatile
  1796  000A84  EF91  F005         	goto	l84
  1797  000A88                     l1868:
  1798  000A88  C001  F005         	movff	pinMode@pin,??_pinMode
  1799  000A8C  0EE8               	movlw	-24
  1800  000A8E  2605               	addwf	??_pinMode^0,f,c
  1801  000A90  0E01               	movlw	1
  1802  000A92  6E06               	movwf	(??_pinMode+1)^0,c
  1803  000A94  2A05               	incf	??_pinMode^0,f,c
  1804  000A96  EF4F  F005         	goto	u1424
  1805  000A9A                     u1425:
  1806  000A9A  90D8               	bcf	status,0,c
  1807  000A9C  3606               	rlcf	(??_pinMode+1)^0,f,c
  1808  000A9E                     u1424:
  1809  000A9E  2E05               	decfsz	??_pinMode^0,f,c
  1810  000AA0  EF4D  F005         	goto	u1425
  1811  000AA4  5006               	movf	(??_pinMode+1)^0,w,c
  1812  000AA6  0AFF               	xorlw	255
  1813  000AA8  1695               	andwf	149,f,c	;volatile
  1814  000AAA  EF91  F005         	goto	l84
  1815  000AAE                     l1870:
  1816  000AAE  BE02               	btfsc	(pinMode@pin+1)^0,7,c
  1817  000AB0  EF65  F005         	goto	u1430
  1818  000AB4  5002               	movf	(pinMode@pin+1)^0,w,c
  1819  000AB6  E107               	bnz	u1431
  1820  000AB8  0E28               	movlw	40
  1821  000ABA  5C01               	subwf	pinMode@pin^0,w,c
  1822  000ABC  B0D8               	btfsc	status,0,c
  1823  000ABE  EF63  F005         	goto	u1431
  1824  000AC2  EF65  F005         	goto	u1430
  1825  000AC6                     u1431:
  1826  000AC6  EF91  F005         	goto	l84
  1827  000ACA                     u1430:
  1828  000ACA                     
  1829                           ;C:/Programacao/Embarcada/ProjetoFinal_RafaelHadzic_2020010302.X/io.c: 69:         if (t
      +                          ype){ ((TRISE) |= (1<<(pin-32)));}
  1830  000ACA  5003               	movf	pinMode@type^0,w,c
  1831  000ACC  1004               	iorwf	(pinMode@type+1)^0,w,c
  1832  000ACE  B4D8               	btfsc	status,2,c
  1833  000AD0  EF6C  F005         	goto	u1441
  1834  000AD4  EF6E  F005         	goto	u1440
  1835  000AD8                     u1441:
  1836  000AD8  EF80  F005         	goto	l1876
  1837  000ADC                     u1440:
  1838  000ADC  C001  F005         	movff	pinMode@pin,??_pinMode
  1839  000AE0  0EE0               	movlw	-32
  1840  000AE2  2605               	addwf	??_pinMode^0,f,c
  1841  000AE4  0E01               	movlw	1
  1842  000AE6  6E06               	movwf	(??_pinMode+1)^0,c
  1843  000AE8  2A05               	incf	??_pinMode^0,f,c
  1844  000AEA  EF79  F005         	goto	u1454
  1845  000AEE                     u1455:
  1846  000AEE  90D8               	bcf	status,0,c
  1847  000AF0  3606               	rlcf	(??_pinMode+1)^0,f,c
  1848  000AF2                     u1454:
  1849  000AF2  2E05               	decfsz	??_pinMode^0,f,c
  1850  000AF4  EF77  F005         	goto	u1455
  1851  000AF8  5006               	movf	(??_pinMode+1)^0,w,c
  1852  000AFA  1296               	iorwf	150,f,c	;volatile
  1853  000AFC  EF91  F005         	goto	l84
  1854  000B00                     l1876:
  1855  000B00  C001  F005         	movff	pinMode@pin,??_pinMode
  1856  000B04  0EE0               	movlw	-32
  1857  000B06  2605               	addwf	??_pinMode^0,f,c
  1858  000B08  0E01               	movlw	1
  1859  000B0A  6E06               	movwf	(??_pinMode+1)^0,c
  1860  000B0C  2A05               	incf	??_pinMode^0,f,c
  1861  000B0E  EF8B  F005         	goto	u1464
  1862  000B12                     u1465:
  1863  000B12  90D8               	bcf	status,0,c
  1864  000B14  3606               	rlcf	(??_pinMode+1)^0,f,c
  1865  000B16                     u1464:
  1866  000B16  2E05               	decfsz	??_pinMode^0,f,c
  1867  000B18  EF89  F005         	goto	u1465
  1868  000B1C  5006               	movf	(??_pinMode+1)^0,w,c
  1869  000B1E  0AFF               	xorlw	255
  1870  000B20  1696               	andwf	150,f,c	;volatile
  1871  000B22                     l84:
  1872  000B22  0012               	return		;funcret
  1873  000B24                     __end_of_pinMode:
  1874                           	callstack 0
  1875                           
  1876 ;; *************** function _ssdDigit *****************
  1877 ;; Defined at:
  1878 ;;		line 38 in file "C:/Programacao/Embarcada/ProjetoFinal_RafaelHadzic_2020010302.X/ssd.c"
  1879 ;; Parameters:    Size  Location     Type
  1880 ;;  val             1    wreg     unsigned char 
  1881 ;;  pos             1   14[COMRAM] unsigned char 
  1882 ;; Auto vars:     Size  Location     Type
  1883 ;;  val             1   15[COMRAM] unsigned char 
  1884 ;; Return value:  Size  Location     Type
  1885 ;;                  1    wreg      void 
  1886 ;; Registers used:
  1887 ;;		wreg, status,2, status,0
  1888 ;; Tracked objects:
  1889 ;;		On entry : 0/0
  1890 ;;		On exit  : 0/0
  1891 ;;		Unchanged: 0/0
  1892 ;; Data sizes:     COMRAM   BANK0   BANK1   BANK2   BANK3   BANK4   BANK5
  1893 ;;      Params:         1       0       0       0       0       0       0
  1894 ;;      Locals:         1       0       0       0       0       0       0
  1895 ;;      Temps:          0       0       0       0       0       0       0
  1896 ;;      Totals:         2       0       0       0       0       0       0
  1897 ;;Total ram usage:        2 bytes
  1898 ;; Hardware stack levels used: 1
  1899 ;; This function calls:
  1900 ;;		Nothing
  1901 ;; This function is called by:
  1902 ;;		_main
  1903 ;; This function uses a non-reentrant model
  1904 ;;
  1905                           
  1906                           	psect	text5
  1907  0013CA                     __ptext5:
  1908                           	callstack 0
  1909  0013CA                     _ssdDigit:
  1910                           	callstack 30
  1911                           
  1912                           ;incstack = 0
  1913                           ;ssdDigit@val stored from wreg
  1914  0013CA  6E10               	movwf	ssdDigit@val^0,c
  1915  0013CC                     
  1916                           ;C:/Programacao/Embarcada/ProjetoFinal_RafaelHadzic_2020010302.X/ssd.c: 39:     if (pos 
      +                          == 0) {
  1917  0013CC  500F               	movf	ssdDigit@pos^0,w,c
  1918  0013CE  A4D8               	btfss	status,2,c
  1919  0013D0  EFEC  F009         	goto	u1551
  1920  0013D4  EFEE  F009         	goto	u1550
  1921  0013D8                     u1551:
  1922  0013D8  EFF0  F009         	goto	l1950
  1923  0013DC                     u1550:
  1924  0013DC                     
  1925                           ;C:/Programacao/Embarcada/ProjetoFinal_RafaelHadzic_2020010302.X/ssd.c: 40:         v0 =
      +                           val;
  1926  0013DC  C010  F026         	movff	ssdDigit@val,_v0
  1927  0013E0                     l1950:
  1928                           
  1929                           ;C:/Programacao/Embarcada/ProjetoFinal_RafaelHadzic_2020010302.X/ssd.c: 42:     if (pos 
      +                          == 1) {
  1930  0013E0  040F               	decf	ssdDigit@pos^0,w,c
  1931  0013E2  A4D8               	btfss	status,2,c
  1932  0013E4  EFF6  F009         	goto	u1561
  1933  0013E8  EFF8  F009         	goto	u1560
  1934  0013EC                     u1561:
  1935  0013EC  EFFA  F009         	goto	l1954
  1936  0013F0                     u1560:
  1937  0013F0                     
  1938                           ;C:/Programacao/Embarcada/ProjetoFinal_RafaelHadzic_2020010302.X/ssd.c: 43:         v1 =
      +                           val;
  1939  0013F0  C010  F025         	movff	ssdDigit@val,_v1
  1940  0013F4                     l1954:
  1941                           
  1942                           ;C:/Programacao/Embarcada/ProjetoFinal_RafaelHadzic_2020010302.X/ssd.c: 45:     if (pos 
      +                          == 2) {
  1943  0013F4  0E02               	movlw	2
  1944  0013F6  180F               	xorwf	ssdDigit@pos^0,w,c
  1945  0013F8  A4D8               	btfss	status,2,c
  1946  0013FA  EF01  F00A         	goto	u1571
  1947  0013FE  EF03  F00A         	goto	u1570
  1948  001402                     u1571:
  1949  001402  EF05  F00A         	goto	l1958
  1950  001406                     u1570:
  1951  001406                     
  1952                           ;C:/Programacao/Embarcada/ProjetoFinal_RafaelHadzic_2020010302.X/ssd.c: 46:         v2 =
      +                           val;
  1953  001406  C010  F024         	movff	ssdDigit@val,_v2
  1954  00140A                     l1958:
  1955                           
  1956                           ;C:/Programacao/Embarcada/ProjetoFinal_RafaelHadzic_2020010302.X/ssd.c: 48:     if (pos 
      +                          == 3) {
  1957  00140A  0E03               	movlw	3
  1958  00140C  180F               	xorwf	ssdDigit@pos^0,w,c
  1959  00140E  A4D8               	btfss	status,2,c
  1960  001410  EF0C  F00A         	goto	u1581
  1961  001414  EF0E  F00A         	goto	u1580
  1962  001418                     u1581:
  1963  001418  EF10  F00A         	goto	l215
  1964  00141C                     u1580:
  1965  00141C                     
  1966                           ;C:/Programacao/Embarcada/ProjetoFinal_RafaelHadzic_2020010302.X/ssd.c: 49:         v3 =
      +                           val;
  1967  00141C  C010  F023         	movff	ssdDigit@val,_v3
  1968  001420                     l215:
  1969  001420  0012               	return		;funcret
  1970  001422                     __end_of_ssdDigit:
  1971                           	callstack 0
  1972                           
  1973 ;; *************** function _serial_tx_str *****************
  1974 ;; Defined at:
  1975 ;;		line 56 in file "C:/Programacao/Embarcada/ProjetoFinal_RafaelHadzic_2020010302.X/serial.c"
  1976 ;; Parameters:    Size  Location     Type
  1977 ;;  val             2    1[COMRAM] PTR const unsigned char 
  1978 ;;		 -> STR_8(25), 
  1979 ;; Auto vars:     Size  Location     Type
  1980 ;;  i               1    5[COMRAM] unsigned char 
  1981 ;; Return value:  Size  Location     Type
  1982 ;;                  1    wreg      void 
  1983 ;; Registers used:
  1984 ;;		wreg, status,2, status,0, tblptrl, tblptrh, tblptru, cstack
  1985 ;; Tracked objects:
  1986 ;;		On entry : 0/0
  1987 ;;		On exit  : 0/0
  1988 ;;		Unchanged: 0/0
  1989 ;; Data sizes:     COMRAM   BANK0   BANK1   BANK2   BANK3   BANK4   BANK5
  1990 ;;      Params:         2       0       0       0       0       0       0
  1991 ;;      Locals:         1       0       0       0       0       0       0
  1992 ;;      Temps:          2       0       0       0       0       0       0
  1993 ;;      Totals:         5       0       0       0       0       0       0
  1994 ;;Total ram usage:        5 bytes
  1995 ;; Hardware stack levels used: 1
  1996 ;; Hardware stack levels required when called: 1
  1997 ;; This function calls:
  1998 ;;		_serial_tx
  1999 ;; This function is called by:
  2000 ;;		_main
  2001 ;; This function uses a non-reentrant model
  2002 ;;
  2003                           
  2004                           	psect	text6
  2005  001478                     __ptext6:
  2006                           	callstack 0
  2007  001478                     _serial_tx_str:
  2008                           	callstack 29
  2009  001478                     
  2010                           ;C:/Programacao/Embarcada/ProjetoFinal_RafaelHadzic_2020010302.X/serial.c: 56: void seri
      +                          al_tx_str(const char* val);C:/Programacao/Embarcada/ProjetoFinal_RafaelHadzic_2020010302
      +                          .X/serial.c: 57: {;C:/Programacao/Embarcada/ProjetoFinal_RafaelHadzic_2020010302.X/seria
      +                          l.c: 58:   unsigned char i=0;
  2011  001478  0E00               	movlw	0
  2012  00147A  6E06               	movwf	serial_tx_str@i^0,c
  2013                           
  2014                           ;C:/Programacao/Embarcada/ProjetoFinal_RafaelHadzic_2020010302.X/serial.c: 60:   while(v
      +                          al[i])
  2015  00147C  EF4F  F00A         	goto	l1942
  2016  001480                     l1938:
  2017                           
  2018                           ;C:/Programacao/Embarcada/ProjetoFinal_RafaelHadzic_2020010302.X/serial.c: 61:   {;C:/Pr
      +                          ogramacao/Embarcada/ProjetoFinal_RafaelHadzic_2020010302.X/serial.c: 62:     serial_tx(v
      +                          al[i]);
  2019  001480  5006               	movf	serial_tx_str@i^0,w,c
  2020  001482  2402               	addwf	serial_tx_str@val^0,w,c
  2021  001484  6E04               	movwf	??_serial_tx_str^0,c
  2022  001486  0E00               	movlw	0
  2023  001488  2003               	addwfc	(serial_tx_str@val+1)^0,w,c
  2024  00148A  6E05               	movwf	(??_serial_tx_str+1)^0,c
  2025  00148C  C004  FFF6         	movff	??_serial_tx_str,tblptrl
  2026  001490  C005  FFF7         	movff	??_serial_tx_str+1,tblptrh
  2027  001494                     	if	0	;tblptru may be non-zero
  2028  001494                     	endif
  2029  001494                     	if	0	;tblptru may be non-zero
  2030  001494                     	endif
  2031  001494  0008               	tblrd		*
  2032  001496  50F5               	movf	tablat,w,c
  2033  001498  EC06  F00B         	call	_serial_tx
  2034  00149C                     
  2035                           ;C:/Programacao/Embarcada/ProjetoFinal_RafaelHadzic_2020010302.X/serial.c: 63:     i++;
  2036  00149C  2A06               	incf	serial_tx_str@i^0,f,c
  2037  00149E                     l1942:
  2038                           
  2039                           ;C:/Programacao/Embarcada/ProjetoFinal_RafaelHadzic_2020010302.X/serial.c: 60:   while(v
      +                          al[i])
  2040  00149E  5006               	movf	serial_tx_str@i^0,w,c
  2041  0014A0  2402               	addwf	serial_tx_str@val^0,w,c
  2042  0014A2  6E04               	movwf	??_serial_tx_str^0,c
  2043  0014A4  0E00               	movlw	0
  2044  0014A6  2003               	addwfc	(serial_tx_str@val+1)^0,w,c
  2045  0014A8  6E05               	movwf	(??_serial_tx_str+1)^0,c
  2046  0014AA  C004  FFF6         	movff	??_serial_tx_str,tblptrl
  2047  0014AE  C005  FFF7         	movff	??_serial_tx_str+1,tblptrh
  2048  0014B2                     	if	0	;tblptru may be non-zero
  2049  0014B2                     	endif
  2050  0014B2                     	if	0	;tblptru may be non-zero
  2051  0014B2                     	endif
  2052  0014B2  0008               	tblrd		*
  2053  0014B4  50F5               	movf	tablat,w,c
  2054  0014B6  0900               	iorlw	0
  2055  0014B8  A4D8               	btfss	status,2,c
  2056  0014BA  EF61  F00A         	goto	u1541
  2057  0014BE  EF63  F00A         	goto	u1540
  2058  0014C2                     u1541:
  2059  0014C2  EF40  F00A         	goto	l1938
  2060  0014C6                     u1540:
  2061  0014C6  0012               	return		;funcret
  2062  0014C8                     __end_of_serial_tx_str:
  2063                           	callstack 0
  2064                           
  2065 ;; *************** function _serial_tx *****************
  2066 ;; Defined at:
  2067 ;;		line 50 in file "C:/Programacao/Embarcada/ProjetoFinal_RafaelHadzic_2020010302.X/serial.c"
  2068 ;; Parameters:    Size  Location     Type
  2069 ;;  val             1    wreg     unsigned char 
  2070 ;; Auto vars:     Size  Location     Type
  2071 ;;  val             1    0[COMRAM] unsigned char 
  2072 ;; Return value:  Size  Location     Type
  2073 ;;                  1    wreg      void 
  2074 ;; Registers used:
  2075 ;;		wreg
  2076 ;; Tracked objects:
  2077 ;;		On entry : 0/0
  2078 ;;		On exit  : 0/0
  2079 ;;		Unchanged: 0/0
  2080 ;; Data sizes:     COMRAM   BANK0   BANK1   BANK2   BANK3   BANK4   BANK5
  2081 ;;      Params:         0       0       0       0       0       0       0
  2082 ;;      Locals:         1       0       0       0       0       0       0
  2083 ;;      Temps:          0       0       0       0       0       0       0
  2084 ;;      Totals:         1       0       0       0       0       0       0
  2085 ;;Total ram usage:        1 bytes
  2086 ;; Hardware stack levels used: 1
  2087 ;; This function calls:
  2088 ;;		Nothing
  2089 ;; This function is called by:
  2090 ;;		_serial_tx_str
  2091 ;; This function uses a non-reentrant model
  2092 ;;
  2093                           
  2094                           	psect	text7
  2095  00160C                     __ptext7:
  2096                           	callstack 0
  2097  00160C                     _serial_tx:
  2098                           	callstack 29
  2099                           
  2100                           ;incstack = 0
  2101                           ;serial_tx@val stored from wreg
  2102  00160C  6E01               	movwf	serial_tx@val^0,c
  2103  00160E                     
  2104                           ;C:/Programacao/Embarcada/ProjetoFinal_RafaelHadzic_2020010302.X/serial.c: 50: void seri
      +                          al_tx(unsigned char val);C:/Programacao/Embarcada/ProjetoFinal_RafaelHadzic_2020010302.X
      +                          /serial.c: 51: {;C:/Programacao/Embarcada/ProjetoFinal_RafaelHadzic_2020010302.X/serial.
      +                          c: 52:   TXREG=val;
  2105  00160E  C001  FFAD         	movff	serial_tx@val,4013	;volatile
  2106  001612                     l128:
  2107  001612  A2AC               	btfss	172,1,c	;volatile
  2108  001614  EF0E  F00B         	goto	u451
  2109  001618  EF10  F00B         	goto	u450
  2110  00161C                     u451:
  2111  00161C  EF09  F00B         	goto	l128
  2112  001620                     u450:
  2113  001620  0012               	return		;funcret
  2114  001622                     __end_of_serial_tx:
  2115                           	callstack 0
  2116                           
  2117 ;; *************** function _serial_init *****************
  2118 ;; Defined at:
  2119 ;;		line 30 in file "C:/Programacao/Embarcada/ProjetoFinal_RafaelHadzic_2020010302.X/serial.c"
  2120 ;; Parameters:    Size  Location     Type
  2121 ;;		None
  2122 ;; Auto vars:     Size  Location     Type
  2123 ;;		None
  2124 ;; Return value:  Size  Location     Type
  2125 ;;                  1    wreg      void 
  2126 ;; Registers used:
  2127 ;;		wreg, status,2
  2128 ;; Tracked objects:
  2129 ;;		On entry : 0/0
  2130 ;;		On exit  : 0/0
  2131 ;;		Unchanged: 0/0
  2132 ;; Data sizes:     COMRAM   BANK0   BANK1   BANK2   BANK3   BANK4   BANK5
  2133 ;;      Params:         0       0       0       0       0       0       0
  2134 ;;      Locals:         0       0       0       0       0       0       0
  2135 ;;      Temps:          0       0       0       0       0       0       0
  2136 ;;      Totals:         0       0       0       0       0       0       0
  2137 ;;Total ram usage:        0 bytes
  2138 ;; Hardware stack levels used: 1
  2139 ;; This function calls:
  2140 ;;		Nothing
  2141 ;; This function is called by:
  2142 ;;		_main
  2143 ;; This function uses a non-reentrant model
  2144 ;;
  2145                           
  2146                           	psect	text8
  2147  001622                     __ptext8:
  2148                           	callstack 0
  2149  001622                     _serial_init:
  2150                           	callstack 30
  2151  001622                     
  2152                           ;C:/Programacao/Embarcada/ProjetoFinal_RafaelHadzic_2020010302.X/serial.c: 32:     SPBRG
      +                          =103;
  2153  001622  0E67               	movlw	103
  2154  001624  6EAF               	movwf	175,c	;volatile
  2155  001626                     
  2156                           ;C:/Programacao/Embarcada/ProjetoFinal_RafaelHadzic_2020010302.X/serial.c: 37:     TXSTA
      +                          bits.TX9=0;
  2157  001626  9CAC               	bcf	172,6,c	;volatile
  2158  001628                     
  2159                           ;C:/Programacao/Embarcada/ProjetoFinal_RafaelHadzic_2020010302.X/serial.c: 38:     TXSTA
      +                          bits.TXEN=1;
  2160  001628  8AAC               	bsf	172,5,c	;volatile
  2161  00162A                     
  2162                           ;C:/Programacao/Embarcada/ProjetoFinal_RafaelHadzic_2020010302.X/serial.c: 39:     TXSTA
      +                          bits.SYNC=0;
  2163  00162A  98AC               	bcf	172,4,c	;volatile
  2164  00162C                     
  2165                           ;C:/Programacao/Embarcada/ProjetoFinal_RafaelHadzic_2020010302.X/serial.c: 40:     TXSTA
      +                          bits.BRGH=1;
  2166  00162C  84AC               	bsf	172,2,c	;volatile
  2167  00162E                     
  2168                           ;C:/Programacao/Embarcada/ProjetoFinal_RafaelHadzic_2020010302.X/serial.c: 41:     RCSTA
      +                          bits.SPEN=1;
  2169  00162E  8EAB               	bsf	171,7,c	;volatile
  2170  001630                     
  2171                           ;C:/Programacao/Embarcada/ProjetoFinal_RafaelHadzic_2020010302.X/serial.c: 42:     RCSTA
      +                          bits.RX9=0;
  2172  001630  9CAB               	bcf	171,6,c	;volatile
  2173  001632                     
  2174                           ;C:/Programacao/Embarcada/ProjetoFinal_RafaelHadzic_2020010302.X/serial.c: 43:     RCSTA
      +                          bits.CREN=1;
  2175  001632  88AB               	bsf	171,4,c	;volatile
  2176  001634  0012               	return		;funcret
  2177  001636                     __end_of_serial_init:
  2178                           	callstack 0
  2179                           
  2180 ;; *************** function _pwmInit *****************
  2181 ;; Defined at:
  2182 ;;		line 60 in file "C:/Programacao/Embarcada/ProjetoFinal_RafaelHadzic_2020010302.X/pwm.c"
  2183 ;; Parameters:    Size  Location     Type
  2184 ;;		None
  2185 ;; Auto vars:     Size  Location     Type
  2186 ;;		None
  2187 ;; Return value:  Size  Location     Type
  2188 ;;                  1    wreg      void 
  2189 ;; Registers used:
  2190 ;;		wreg, status,2, status,0
  2191 ;; Tracked objects:
  2192 ;;		On entry : 0/0
  2193 ;;		On exit  : 0/0
  2194 ;;		Unchanged: 0/0
  2195 ;; Data sizes:     COMRAM   BANK0   BANK1   BANK2   BANK3   BANK4   BANK5
  2196 ;;      Params:         0       0       0       0       0       0       0
  2197 ;;      Locals:         0       0       0       0       0       0       0
  2198 ;;      Temps:          0       0       0       0       0       0       0
  2199 ;;      Totals:         0       0       0       0       0       0       0
  2200 ;;Total ram usage:        0 bytes
  2201 ;; Hardware stack levels used: 1
  2202 ;; This function calls:
  2203 ;;		Nothing
  2204 ;; This function is called by:
  2205 ;;		_main
  2206 ;; This function uses a non-reentrant model
  2207 ;;
  2208                           
  2209                           	psect	text9
  2210  001636                     __ptext9:
  2211                           	callstack 0
  2212  001636                     _pwmInit:
  2213                           	callstack 30
  2214  001636                     
  2215                           ;C:/Programacao/Embarcada/ProjetoFinal_RafaelHadzic_2020010302.X/pwm.c: 62:  ((TRISC) &=
      +                           ~(1<<(1)));
  2216  001636  9294               	bcf	148,1,c	;volatile
  2217                           
  2218                           ;C:/Programacao/Embarcada/ProjetoFinal_RafaelHadzic_2020010302.X/pwm.c: 63:  ((TRISC) &=
      +                           ~(1<<(2)));
  2219  001638  9494               	bcf	148,2,c	;volatile
  2220  00163A                     
  2221                           ;C:/Programacao/Embarcada/ProjetoFinal_RafaelHadzic_2020010302.X/pwm.c: 65:  T2CON |= 0b
      +                          00000011;
  2222  00163A  0E03               	movlw	3
  2223  00163C  12CA               	iorwf	202,f,c	;volatile
  2224  00163E                     
  2225                           ;C:/Programacao/Embarcada/ProjetoFinal_RafaelHadzic_2020010302.X/pwm.c: 66:  ((T2CON) |=
      +                           (1<<(2)));
  2226  00163E  84CA               	bsf	202,2,c	;volatile
  2227                           
  2228                           ;C:/Programacao/Embarcada/ProjetoFinal_RafaelHadzic_2020010302.X/pwm.c: 69:  CCP1CON |= 
      +                          0b00001100;
  2229  001640  0E0C               	movlw	12
  2230  001642  12BD               	iorwf	189,f,c	;volatile
  2231                           
  2232                           ;C:/Programacao/Embarcada/ProjetoFinal_RafaelHadzic_2020010302.X/pwm.c: 70:  CCP2CON |= 
      +                          0b00001100;
  2233  001644  0E0C               	movlw	12
  2234  001646  12BA               	iorwf	186,f,c	;volatile
  2235  001648  0012               	return		;funcret
  2236  00164A                     __end_of_pwmInit:
  2237                           	callstack 0
  2238                           
  2239 ;; *************** function _pwmFrequency *****************
  2240 ;; Defined at:
  2241 ;;		line 53 in file "C:/Programacao/Embarcada/ProjetoFinal_RafaelHadzic_2020010302.X/pwm.c"
  2242 ;; Parameters:    Size  Location     Type
  2243 ;;  freq            2   14[COMRAM] unsigned int 
  2244 ;; Auto vars:     Size  Location     Type
  2245 ;;		None
  2246 ;; Return value:  Size  Location     Type
  2247 ;;                  1    wreg      void 
  2248 ;; Registers used:
  2249 ;;		wreg, status,2, status,0, cstack
  2250 ;; Tracked objects:
  2251 ;;		On entry : 0/0
  2252 ;;		On exit  : 0/0
  2253 ;;		Unchanged: 0/0
  2254 ;; Data sizes:     COMRAM   BANK0   BANK1   BANK2   BANK3   BANK4   BANK5
  2255 ;;      Params:         2       0       0       0       0       0       0
  2256 ;;      Locals:         0       0       0       0       0       0       0
  2257 ;;      Temps:          0       0       0       0       0       0       0
  2258 ;;      Totals:         2       0       0       0       0       0       0
  2259 ;;Total ram usage:        2 bytes
  2260 ;; Hardware stack levels used: 1
  2261 ;; Hardware stack levels required when called: 1
  2262 ;; This function calls:
  2263 ;;		___aldiv
  2264 ;; This function is called by:
  2265 ;;		_main
  2266 ;; This function uses a non-reentrant model
  2267 ;;
  2268                           
  2269                           	psect	text10
  2270  0015AA                     __ptext10:
  2271                           	callstack 0
  2272  0015AA                     _pwmFrequency:
  2273                           	callstack 29
  2274  0015AA                     
  2275                           ;C:/Programacao/Embarcada/ProjetoFinal_RafaelHadzic_2020010302.X/pwm.c: 53: void pwmFreq
      +                          uency(unsigned int freq);C:/Programacao/Embarcada/ProjetoFinal_RafaelHadzic_2020010302.X
      +                          /pwm.c: 54: {;C:/Programacao/Embarcada/ProjetoFinal_RafaelHadzic_2020010302.X/pwm.c: 57:
      +                            PR2 = (125000/(freq)) - 1;
  2276  0015AA  0E48               	movlw	72
  2277  0015AC  6E01               	movwf	___aldiv@dividend^0,c
  2278  0015AE  0EE8               	movlw	232
  2279  0015B0  6E02               	movwf	(___aldiv@dividend+1)^0,c
  2280  0015B2  0E01               	movlw	1
  2281  0015B4  6E03               	movwf	(___aldiv@dividend+2)^0,c
  2282  0015B6  0E00               	movlw	0
  2283  0015B8  6E04               	movwf	(___aldiv@dividend+3)^0,c
  2284  0015BA  C00F  F005         	movff	pwmFrequency@freq,___aldiv@divisor
  2285  0015BE  C010  F006         	movff	pwmFrequency@freq+1,___aldiv@divisor+1
  2286  0015C2  6A07               	clrf	(___aldiv@divisor+2)^0,c
  2287  0015C4  6A08               	clrf	(___aldiv@divisor+3)^0,c
  2288  0015C6  EC1D  F008         	call	___aldiv	;wreg free
  2289  0015CA  0401               	decf	?___aldiv^0,w,c
  2290  0015CC  6ECB               	movwf	203,c	;volatile
  2291  0015CE  0012               	return		;funcret
  2292  0015D0                     __end_of_pwmFrequency:
  2293                           	callstack 0
  2294                           
  2295 ;; *************** function ___aldiv *****************
  2296 ;; Defined at:
  2297 ;;		line 7 in file "C:\Program Files\Microchip\xc8\v2.32\pic\sources\c99\common\aldiv.c"
  2298 ;; Parameters:    Size  Location     Type
  2299 ;;  dividend        4    0[COMRAM] long 
  2300 ;;  divisor         4    4[COMRAM] long 
  2301 ;; Auto vars:     Size  Location     Type
  2302 ;;  quotient        4   10[COMRAM] long 
  2303 ;;  sign            1    9[COMRAM] unsigned char 
  2304 ;;  counter         1    8[COMRAM] unsigned char 
  2305 ;; Return value:  Size  Location     Type
  2306 ;;                  4    0[COMRAM] long 
  2307 ;; Registers used:
  2308 ;;		wreg, status,2, status,0
  2309 ;; Tracked objects:
  2310 ;;		On entry : 0/0
  2311 ;;		On exit  : 0/0
  2312 ;;		Unchanged: 0/0
  2313 ;; Data sizes:     COMRAM   BANK0   BANK1   BANK2   BANK3   BANK4   BANK5
  2314 ;;      Params:         8       0       0       0       0       0       0
  2315 ;;      Locals:         6       0       0       0       0       0       0
  2316 ;;      Temps:          0       0       0       0       0       0       0
  2317 ;;      Totals:        14       0       0       0       0       0       0
  2318 ;;Total ram usage:       14 bytes
  2319 ;; Hardware stack levels used: 1
  2320 ;; This function calls:
  2321 ;;		Nothing
  2322 ;; This function is called by:
  2323 ;;		_pwmFrequency
  2324 ;; This function uses a non-reentrant model
  2325 ;;
  2326                           
  2327                           	psect	text11
  2328  00103A                     __ptext11:
  2329                           	callstack 0
  2330  00103A                     ___aldiv:
  2331                           	callstack 29
  2332  00103A  0E00               	movlw	0
  2333  00103C  6E0A               	movwf	___aldiv@sign^0,c
  2334  00103E  BE08               	btfsc	(___aldiv@divisor+3)^0,7,c
  2335  001040  EF26  F008         	goto	u1480
  2336  001044  EF24  F008         	goto	u1481
  2337  001048                     u1481:
  2338  001048  EF30  F008         	goto	l1900
  2339  00104C                     u1480:
  2340  00104C  1E08               	comf	(___aldiv@divisor+3)^0,f,c
  2341  00104E  1E07               	comf	(___aldiv@divisor+2)^0,f,c
  2342  001050  1E06               	comf	(___aldiv@divisor+1)^0,f,c
  2343  001052  6C05               	negf	___aldiv@divisor^0,c
  2344  001054  0E00               	movlw	0
  2345  001056  2206               	addwfc	(___aldiv@divisor+1)^0,f,c
  2346  001058  2207               	addwfc	(___aldiv@divisor+2)^0,f,c
  2347  00105A  2208               	addwfc	(___aldiv@divisor+3)^0,f,c
  2348  00105C  0E01               	movlw	1
  2349  00105E  6E0A               	movwf	___aldiv@sign^0,c
  2350  001060                     l1900:
  2351  001060  BE04               	btfsc	(___aldiv@dividend+3)^0,7,c
  2352  001062  EF37  F008         	goto	u1490
  2353  001066  EF35  F008         	goto	u1491
  2354  00106A                     u1491:
  2355  00106A  EF41  F008         	goto	l1906
  2356  00106E                     u1490:
  2357  00106E  1E04               	comf	(___aldiv@dividend+3)^0,f,c
  2358  001070  1E03               	comf	(___aldiv@dividend+2)^0,f,c
  2359  001072  1E02               	comf	(___aldiv@dividend+1)^0,f,c
  2360  001074  6C01               	negf	___aldiv@dividend^0,c
  2361  001076  0E00               	movlw	0
  2362  001078  2202               	addwfc	(___aldiv@dividend+1)^0,f,c
  2363  00107A  2203               	addwfc	(___aldiv@dividend+2)^0,f,c
  2364  00107C  2204               	addwfc	(___aldiv@dividend+3)^0,f,c
  2365  00107E  0E01               	movlw	1
  2366  001080  1A0A               	xorwf	___aldiv@sign^0,f,c
  2367  001082                     l1906:
  2368  001082  0E00               	movlw	0
  2369  001084  6E0B               	movwf	___aldiv@quotient^0,c
  2370  001086  0E00               	movlw	0
  2371  001088  6E0C               	movwf	(___aldiv@quotient+1)^0,c
  2372  00108A  0E00               	movlw	0
  2373  00108C  6E0D               	movwf	(___aldiv@quotient+2)^0,c
  2374  00108E  0E00               	movlw	0
  2375  001090  6E0E               	movwf	(___aldiv@quotient+3)^0,c
  2376  001092  5005               	movf	___aldiv@divisor^0,w,c
  2377  001094  1006               	iorwf	(___aldiv@divisor+1)^0,w,c
  2378  001096  1007               	iorwf	(___aldiv@divisor+2)^0,w,c
  2379  001098  1008               	iorwf	(___aldiv@divisor+3)^0,w,c
  2380  00109A  B4D8               	btfsc	status,2,c
  2381  00109C  EF52  F008         	goto	u1501
  2382  0010A0  EF54  F008         	goto	u1500
  2383  0010A4                     u1501:
  2384  0010A4  EF8A  F008         	goto	l1928
  2385  0010A8                     u1500:
  2386  0010A8  0E01               	movlw	1
  2387  0010AA  6E09               	movwf	___aldiv@counter^0,c
  2388  0010AC  EF5E  F008         	goto	l1914
  2389  0010B0                     l1912:
  2390  0010B0  90D8               	bcf	status,0,c
  2391  0010B2  3605               	rlcf	___aldiv@divisor^0,f,c
  2392  0010B4  3606               	rlcf	(___aldiv@divisor+1)^0,f,c
  2393  0010B6  3607               	rlcf	(___aldiv@divisor+2)^0,f,c
  2394  0010B8  3608               	rlcf	(___aldiv@divisor+3)^0,f,c
  2395  0010BA  2A09               	incf	___aldiv@counter^0,f,c
  2396  0010BC                     l1914:
  2397  0010BC  AE08               	btfss	(___aldiv@divisor+3)^0,7,c
  2398  0010BE  EF63  F008         	goto	u1511
  2399  0010C2  EF65  F008         	goto	u1510
  2400  0010C6                     u1511:
  2401  0010C6  EF58  F008         	goto	l1912
  2402  0010CA                     u1510:
  2403  0010CA                     l1916:
  2404  0010CA  90D8               	bcf	status,0,c
  2405  0010CC  360B               	rlcf	___aldiv@quotient^0,f,c
  2406  0010CE  360C               	rlcf	(___aldiv@quotient+1)^0,f,c
  2407  0010D0  360D               	rlcf	(___aldiv@quotient+2)^0,f,c
  2408  0010D2  360E               	rlcf	(___aldiv@quotient+3)^0,f,c
  2409  0010D4  5005               	movf	___aldiv@divisor^0,w,c
  2410  0010D6  5C01               	subwf	___aldiv@dividend^0,w,c
  2411  0010D8  5006               	movf	(___aldiv@divisor+1)^0,w,c
  2412  0010DA  5802               	subwfb	(___aldiv@dividend+1)^0,w,c
  2413  0010DC  5007               	movf	(___aldiv@divisor+2)^0,w,c
  2414  0010DE  5803               	subwfb	(___aldiv@dividend+2)^0,w,c
  2415  0010E0  5008               	movf	(___aldiv@divisor+3)^0,w,c
  2416  0010E2  5804               	subwfb	(___aldiv@dividend+3)^0,w,c
  2417  0010E4  A0D8               	btfss	status,0,c
  2418  0010E6  EF77  F008         	goto	u1521
  2419  0010EA  EF79  F008         	goto	u1520
  2420  0010EE                     u1521:
  2421  0010EE  EF82  F008         	goto	l1924
  2422  0010F2                     u1520:
  2423  0010F2  5005               	movf	___aldiv@divisor^0,w,c
  2424  0010F4  5E01               	subwf	___aldiv@dividend^0,f,c
  2425  0010F6  5006               	movf	(___aldiv@divisor+1)^0,w,c
  2426  0010F8  5A02               	subwfb	(___aldiv@dividend+1)^0,f,c
  2427  0010FA  5007               	movf	(___aldiv@divisor+2)^0,w,c
  2428  0010FC  5A03               	subwfb	(___aldiv@dividend+2)^0,f,c
  2429  0010FE  5008               	movf	(___aldiv@divisor+3)^0,w,c
  2430  001100  5A04               	subwfb	(___aldiv@dividend+3)^0,f,c
  2431  001102  800B               	bsf	___aldiv@quotient^0,0,c
  2432  001104                     l1924:
  2433  001104  90D8               	bcf	status,0,c
  2434  001106  3208               	rrcf	(___aldiv@divisor+3)^0,f,c
  2435  001108  3207               	rrcf	(___aldiv@divisor+2)^0,f,c
  2436  00110A  3206               	rrcf	(___aldiv@divisor+1)^0,f,c
  2437  00110C  3205               	rrcf	___aldiv@divisor^0,f,c
  2438  00110E  2E09               	decfsz	___aldiv@counter^0,f,c
  2439  001110  EF65  F008         	goto	l1916
  2440  001114                     l1928:
  2441  001114  500A               	movf	___aldiv@sign^0,w,c
  2442  001116  B4D8               	btfsc	status,2,c
  2443  001118  EF90  F008         	goto	u1531
  2444  00111C  EF92  F008         	goto	u1530
  2445  001120                     u1531:
  2446  001120  EF9A  F008         	goto	l1932
  2447  001124                     u1530:
  2448  001124  1E0E               	comf	(___aldiv@quotient+3)^0,f,c
  2449  001126  1E0D               	comf	(___aldiv@quotient+2)^0,f,c
  2450  001128  1E0C               	comf	(___aldiv@quotient+1)^0,f,c
  2451  00112A  6C0B               	negf	___aldiv@quotient^0,c
  2452  00112C  0E00               	movlw	0
  2453  00112E  220C               	addwfc	(___aldiv@quotient+1)^0,f,c
  2454  001130  220D               	addwfc	(___aldiv@quotient+2)^0,f,c
  2455  001132  220E               	addwfc	(___aldiv@quotient+3)^0,f,c
  2456  001134                     l1932:
  2457  001134  C00B  F001         	movff	___aldiv@quotient,?___aldiv
  2458  001138  C00C  F002         	movff	___aldiv@quotient+1,?___aldiv+1
  2459  00113C  C00D  F003         	movff	___aldiv@quotient+2,?___aldiv+2
  2460  001140  C00E  F004         	movff	___aldiv@quotient+3,?___aldiv+3
  2461  001144  0012               	return		;funcret
  2462  001146                     __end_of___aldiv:
  2463                           	callstack 0
  2464                           
  2465 ;; *************** function _kpRead *****************
  2466 ;; Defined at:
  2467 ;;		line 35 in file "C:/Programacao/Embarcada/ProjetoFinal_RafaelHadzic_2020010302.X/keypad.c"
  2468 ;; Parameters:    Size  Location     Type
  2469 ;;		None
  2470 ;; Auto vars:     Size  Location     Type
  2471 ;;		None
  2472 ;; Return value:  Size  Location     Type
  2473 ;;                  2    0[COMRAM] unsigned int 
  2474 ;; Registers used:
  2475 ;;		None
  2476 ;; Tracked objects:
  2477 ;;		On entry : 0/0
  2478 ;;		On exit  : 0/0
  2479 ;;		Unchanged: 0/0
  2480 ;; Data sizes:     COMRAM   BANK0   BANK1   BANK2   BANK3   BANK4   BANK5
  2481 ;;      Params:         2       0       0       0       0       0       0
  2482 ;;      Locals:         0       0       0       0       0       0       0
  2483 ;;      Temps:          0       0       0       0       0       0       0
  2484 ;;      Totals:         2       0       0       0       0       0       0
  2485 ;;Total ram usage:        2 bytes
  2486 ;; Hardware stack levels used: 1
  2487 ;; This function calls:
  2488 ;;		Nothing
  2489 ;; This function is called by:
  2490 ;;		_main
  2491 ;; This function uses a non-reentrant model
  2492 ;;
  2493                           
  2494                           	psect	text12
  2495  00164A                     __ptext12:
  2496                           	callstack 0
  2497  00164A                     _kpRead:
  2498                           	callstack 30
  2499  00164A                     
  2500                           ;C:/Programacao/Embarcada/ProjetoFinal_RafaelHadzic_2020010302.X/keypad.c: 36:     retur
      +                          n valor;
  2501  00164A  C021  F001         	movff	_valor,?_kpRead
  2502  00164E  C022  F002         	movff	_valor+1,?_kpRead+1
  2503  001652  0012               	return		;funcret
  2504  001654                     __end_of_kpRead:
  2505                           	callstack 0
  2506                           
  2507 ;; *************** function _kpInit *****************
  2508 ;; Defined at:
  2509 ;;		line 87 in file "C:/Programacao/Embarcada/ProjetoFinal_RafaelHadzic_2020010302.X/keypad.c"
  2510 ;; Parameters:    Size  Location     Type
  2511 ;;		None
  2512 ;; Auto vars:     Size  Location     Type
  2513 ;;		None
  2514 ;; Return value:  Size  Location     Type
  2515 ;;                  1    wreg      void 
  2516 ;; Registers used:
  2517 ;;		wreg, status,2, status,0
  2518 ;; Tracked objects:
  2519 ;;		On entry : 0/0
  2520 ;;		On exit  : 0/0
  2521 ;;		Unchanged: 0/0
  2522 ;; Data sizes:     COMRAM   BANK0   BANK1   BANK2   BANK3   BANK4   BANK5
  2523 ;;      Params:         0       0       0       0       0       0       0
  2524 ;;      Locals:         0       0       0       0       0       0       0
  2525 ;;      Temps:          0       0       0       0       0       0       0
  2526 ;;      Totals:         0       0       0       0       0       0       0
  2527 ;;Total ram usage:        0 bytes
  2528 ;; Hardware stack levels used: 1
  2529 ;; This function calls:
  2530 ;;		Nothing
  2531 ;; This function is called by:
  2532 ;;		_main
  2533 ;; This function uses a non-reentrant model
  2534 ;;
  2535                           
  2536                           	psect	text13
  2537  001654                     __ptext13:
  2538                           	callstack 0
  2539  001654                     _kpInit:
  2540                           	callstack 30
  2541  001654                     
  2542                           ;C:/Programacao/Embarcada/ProjetoFinal_RafaelHadzic_2020010302.X/keypad.c: 89:     TRISB
      +                           &= 0x07;
  2543  001654  0E07               	movlw	7
  2544  001656  1693               	andwf	147,f,c	;volatile
  2545                           
  2546                           ;C:/Programacao/Embarcada/ProjetoFinal_RafaelHadzic_2020010302.X/keypad.c: 91:     TRISD
      +                           |= 0x0f;
  2547  001658  0E0F               	movlw	15
  2548  00165A  1295               	iorwf	149,f,c	;volatile
  2549  00165C  0012               	return		;funcret
  2550  00165E                     __end_of_kpInit:
  2551                           	callstack 0
  2552                           
  2553 ;; *************** function _kpDebounce *****************
  2554 ;; Defined at:
  2555 ;;		line 39 in file "C:/Programacao/Embarcada/ProjetoFinal_RafaelHadzic_2020010302.X/keypad.c"
  2556 ;; Parameters:    Size  Location     Type
  2557 ;;		None
  2558 ;; Auto vars:     Size  Location     Type
  2559 ;;  k               2    6[COMRAM] int 
  2560 ;;  i               1    9[COMRAM] unsigned char 
  2561 ;;  j               1    8[COMRAM] unsigned char 
  2562 ;;  old_D           1    5[COMRAM] unsigned char 
  2563 ;; Return value:  Size  Location     Type
  2564 ;;                  1    wreg      void 
  2565 ;; Registers used:
  2566 ;;		wreg, status,2, status,0, prodl, prodh
  2567 ;; Tracked objects:
  2568 ;;		On entry : 0/0
  2569 ;;		On exit  : 0/0
  2570 ;;		Unchanged: 0/0
  2571 ;; Data sizes:     COMRAM   BANK0   BANK1   BANK2   BANK3   BANK4   BANK5
  2572 ;;      Params:         0       0       0       0       0       0       0
  2573 ;;      Locals:         5       0       0       0       0       0       0
  2574 ;;      Temps:          5       0       0       0       0       0       0
  2575 ;;      Totals:        10       0       0       0       0       0       0
  2576 ;;Total ram usage:       10 bytes
  2577 ;; Hardware stack levels used: 1
  2578 ;; This function calls:
  2579 ;;		Nothing
  2580 ;; This function is called by:
  2581 ;;		_main
  2582 ;; This function uses a non-reentrant model
  2583 ;;
  2584                           
  2585                           	psect	text14
  2586  000D70                     __ptext14:
  2587                           	callstack 0
  2588  000D70                     _kpDebounce:
  2589                           	callstack 30
  2590  000D70                     
  2591                           ;C:/Programacao/Embarcada/ProjetoFinal_RafaelHadzic_2020010302.X/keypad.c: 40:     unsig
      +                          ned char i, j;;C:/Programacao/Embarcada/ProjetoFinal_RafaelHadzic_2020010302.X/keypad.c:
      +                           41:     static unsigned char tempo;;C:/Programacao/Embarcada/ProjetoFinal_RafaelHadzic_
      +                          2020010302.X/keypad.c: 42:     static unsigned int valorNovo = 0x0000;;C:/Programacao/Em
      +                          barcada/ProjetoFinal_RafaelHadzic_2020010302.X/keypad.c: 43:     static unsigned int val
      +                          orAntigo = 0x0000;;C:/Programacao/Embarcada/ProjetoFinal_RafaelHadzic_2020010302.X/keypa
      +                          d.c: 46:     unsigned char old_D;
  2592  000D70  CF83 F006          	movff	3971,kpDebounce@old_D	;volatile
  2593  000D74                     
  2594                           ;C:/Programacao/Embarcada/ProjetoFinal_RafaelHadzic_2020010302.X/keypad.c: 51:     TRISD
      +                           |= 0x0f;
  2595  000D74  0E0F               	movlw	15
  2596  000D76  1295               	iorwf	149,f,c	;volatile
  2597  000D78                     
  2598                           ;C:/Programacao/Embarcada/ProjetoFinal_RafaelHadzic_2020010302.X/keypad.c: 53:     for (
      +                          i = 0; i < 3; i++) {
  2599  000D78  0E00               	movlw	0
  2600  000D7A  6E0A               	movwf	kpDebounce@i^0,c
  2601  000D7C                     l1268:
  2602                           
  2603                           ;C:/Programacao/Embarcada/ProjetoFinal_RafaelHadzic_2020010302.X/keypad.c: 55:         T
      +                          RISB &= 0xF8;
  2604  000D7C  0EF8               	movlw	248
  2605  000D7E  1693               	andwf	147,f,c	;volatile
  2606                           
  2607                           ;C:/Programacao/Embarcada/ProjetoFinal_RafaelHadzic_2020010302.X/keypad.c: 57:         (
      +                          (TRISB) |= (1<<(i)));
  2608  000D80  C00A  F001         	movff	kpDebounce@i,??_kpDebounce
  2609  000D84  0E01               	movlw	1
  2610  000D86  6E02               	movwf	(??_kpDebounce+1)^0,c
  2611  000D88  2A01               	incf	??_kpDebounce^0,f,c
  2612  000D8A  EFC9  F006         	goto	u544
  2613  000D8E                     u545:
  2614  000D8E  90D8               	bcf	status,0,c
  2615  000D90  3602               	rlcf	(??_kpDebounce+1)^0,f,c
  2616  000D92                     u544:
  2617  000D92  2E01               	decfsz	??_kpDebounce^0,f,c
  2618  000D94  EFC7  F006         	goto	u545
  2619  000D98  5002               	movf	(??_kpDebounce+1)^0,w,c
  2620  000D9A  1293               	iorwf	147,f,c	;volatile
  2621                           
  2622                           ;C:/Programacao/Embarcada/ProjetoFinal_RafaelHadzic_2020010302.X/keypad.c: 59:         P
      +                          ORTB |= 0x07;
  2623  000D9C  0E07               	movlw	7
  2624  000D9E  1281               	iorwf	129,f,c	;volatile
  2625                           
  2626                           ;C:/Programacao/Embarcada/ProjetoFinal_RafaelHadzic_2020010302.X/keypad.c: 60:         (
      +                          (PORTB) &= ~(1<<(i)));
  2627  000DA0  C00A  F001         	movff	kpDebounce@i,??_kpDebounce
  2628  000DA4  0E01               	movlw	1
  2629  000DA6  6E02               	movwf	(??_kpDebounce+1)^0,c
  2630  000DA8  2A01               	incf	??_kpDebounce^0,f,c
  2631  000DAA  EFD9  F006         	goto	u554
  2632  000DAE                     u555:
  2633  000DAE  90D8               	bcf	status,0,c
  2634  000DB0  3602               	rlcf	(??_kpDebounce+1)^0,f,c
  2635  000DB2                     u554:
  2636  000DB2  2E01               	decfsz	??_kpDebounce^0,f,c
  2637  000DB4  EFD7  F006         	goto	u555
  2638  000DB8  5002               	movf	(??_kpDebounce+1)^0,w,c
  2639  000DBA  0AFF               	xorlw	255
  2640  000DBC  1681               	andwf	129,f,c	;volatile
  2641  000DBE                     
  2642                           ;C:/Programacao/Embarcada/ProjetoFinal_RafaelHadzic_2020010302.X/keypad.c: 63:         f
      +                          or (int k = 0; k < 10; k++);
  2643  000DBE  0E00               	movlw	0
  2644  000DC0  6E08               	movwf	(kpDebounce@k+1)^0,c
  2645  000DC2  0E00               	movlw	0
  2646  000DC4  6E07               	movwf	kpDebounce@k^0,c
  2647  000DC6                     l1276:
  2648  000DC6  4A07               	infsnz	kpDebounce@k^0,f,c
  2649  000DC8  2A08               	incf	(kpDebounce@k+1)^0,f,c
  2650  000DCA  BE08               	btfsc	(kpDebounce@k+1)^0,7,c
  2651  000DCC  EFF1  F006         	goto	u561
  2652  000DD0  5008               	movf	(kpDebounce@k+1)^0,w,c
  2653  000DD2  E109               	bnz	u560
  2654  000DD4  0E0A               	movlw	10
  2655  000DD6  5C07               	subwf	kpDebounce@k^0,w,c
  2656  000DD8  A0D8               	btfss	status,0,c
  2657  000DDA  EFF1  F006         	goto	u561
  2658  000DDE  EFF3  F006         	goto	u560
  2659  000DE2                     u561:
  2660  000DE2  EFE3  F006         	goto	l1276
  2661  000DE6                     u560:
  2662  000DE6                     
  2663                           ;C:/Programacao/Embarcada/ProjetoFinal_RafaelHadzic_2020010302.X/keypad.c: 66:         f
      +                          or (j = 0; j < 4; j++) {
  2664  000DE6  0E00               	movlw	0
  2665  000DE8  6E09               	movwf	kpDebounce@j^0,c
  2666  000DEA                     l1286:
  2667                           
  2668                           ;C:/Programacao/Embarcada/ProjetoFinal_RafaelHadzic_2020010302.X/keypad.c: 67:          
      +                             if (!((PORTD) & (1<<(j)))) {
  2669  000DEA  C009  F001         	movff	kpDebounce@j,??_kpDebounce
  2670  000DEE  0E01               	movlw	1
  2671  000DF0  6E02               	movwf	(??_kpDebounce+1)^0,c
  2672  000DF2  2A01               	incf	??_kpDebounce^0,f,c
  2673  000DF4  EFFE  F006         	goto	u574
  2674  000DF8                     u575:
  2675  000DF8  90D8               	bcf	status,0,c
  2676  000DFA  3602               	rlcf	(??_kpDebounce+1)^0,f,c
  2677  000DFC                     u574:
  2678  000DFC  2E01               	decfsz	??_kpDebounce^0,f,c
  2679  000DFE  EFFC  F006         	goto	u575
  2680  000E02  5002               	movf	(??_kpDebounce+1)^0,w,c
  2681  000E04  1483               	andwf	131,w,c	;volatile
  2682  000E06  0900               	iorlw	0
  2683  000E08  A4D8               	btfss	status,2,c
  2684  000E0A  EF09  F007         	goto	u581
  2685  000E0E  EF0B  F007         	goto	u580
  2686  000E12                     u581:
  2687  000E12  EF23  F007         	goto	l1290
  2688  000E16                     u580:
  2689  000E16                     
  2690                           ;C:/Programacao/Embarcada/ProjetoFinal_RafaelHadzic_2020010302.X/keypad.c: 68:          
      +                                 ((valorNovo) |= (1<<((i * 4) + j)));
  2691  000E16  500A               	movf	kpDebounce@i^0,w,c
  2692  000E18  0D04               	mullw	4
  2693  000E1A  50F3               	movf	243,w,c
  2694  000E1C  2409               	addwf	kpDebounce@j^0,w,c
  2695  000E1E  6E01               	movwf	??_kpDebounce^0,c
  2696  000E20  0E01               	movlw	1
  2697  000E22  6E02               	movwf	(??_kpDebounce+1)^0,c
  2698  000E24  0E00               	movlw	0
  2699  000E26  6E03               	movwf	(??_kpDebounce+2)^0,c
  2700  000E28  2A01               	incf	??_kpDebounce^0,f,c
  2701  000E2A  EF1A  F007         	goto	u594
  2702  000E2E                     u595:
  2703  000E2E  90D8               	bcf	status,0,c
  2704  000E30  3602               	rlcf	(??_kpDebounce+1)^0,f,c
  2705  000E32  3603               	rlcf	(??_kpDebounce+2)^0,f,c
  2706  000E34                     u594:
  2707  000E34  2E01               	decfsz	??_kpDebounce^0,f,c
  2708  000E36  EF17  F007         	goto	u595
  2709  000E3A  5002               	movf	(??_kpDebounce+1)^0,w,c
  2710  000E3C  121F               	iorwf	kpDebounce@valorNovo^0,f,c
  2711  000E3E  5003               	movf	(??_kpDebounce+2)^0,w,c
  2712  000E40  1220               	iorwf	(kpDebounce@valorNovo+1)^0,f,c
  2713                           
  2714                           ;C:/Programacao/Embarcada/ProjetoFinal_RafaelHadzic_2020010302.X/keypad.c: 69:          
      +                             } else {
  2715  000E42  EF3D  F007         	goto	l1292
  2716  000E46                     l1290:
  2717                           
  2718                           ;C:/Programacao/Embarcada/ProjetoFinal_RafaelHadzic_2020010302.X/keypad.c: 70:          
      +                                 ((valorNovo) &= ~(1<<((i * 4) + j)));
  2719  000E46  500A               	movf	kpDebounce@i^0,w,c
  2720  000E48  0D04               	mullw	4
  2721  000E4A  50F3               	movf	243,w,c
  2722  000E4C  2409               	addwf	kpDebounce@j^0,w,c
  2723  000E4E  6E01               	movwf	??_kpDebounce^0,c
  2724  000E50  0E01               	movlw	1
  2725  000E52  6E02               	movwf	(??_kpDebounce+1)^0,c
  2726  000E54  0E00               	movlw	0
  2727  000E56  6E03               	movwf	(??_kpDebounce+2)^0,c
  2728  000E58  2A01               	incf	??_kpDebounce^0,f,c
  2729  000E5A  EF32  F007         	goto	u604
  2730  000E5E                     u605:
  2731  000E5E  90D8               	bcf	status,0,c
  2732  000E60  3602               	rlcf	(??_kpDebounce+1)^0,f,c
  2733  000E62  3603               	rlcf	(??_kpDebounce+2)^0,f,c
  2734  000E64                     u604:
  2735  000E64  2E01               	decfsz	??_kpDebounce^0,f,c
  2736  000E66  EF2F  F007         	goto	u605
  2737  000E6A  1C02               	comf	(??_kpDebounce+1)^0,w,c
  2738  000E6C  6E04               	movwf	(??_kpDebounce+3)^0,c
  2739  000E6E  1C03               	comf	(??_kpDebounce+2)^0,w,c
  2740  000E70  6E05               	movwf	(??_kpDebounce+4)^0,c
  2741  000E72  5004               	movf	(??_kpDebounce+3)^0,w,c
  2742  000E74  161F               	andwf	kpDebounce@valorNovo^0,f,c
  2743  000E76  5005               	movf	(??_kpDebounce+4)^0,w,c
  2744  000E78  1620               	andwf	(kpDebounce@valorNovo+1)^0,f,c
  2745  000E7A                     l1292:
  2746                           
  2747                           ;C:/Programacao/Embarcada/ProjetoFinal_RafaelHadzic_2020010302.X/keypad.c: 72:         }
  2748  000E7A  2A09               	incf	kpDebounce@j^0,f,c
  2749  000E7C  0E03               	movlw	3
  2750  000E7E  6409               	cpfsgt	kpDebounce@j^0,c
  2751  000E80  EF44  F007         	goto	u611
  2752  000E84  EF46  F007         	goto	u610
  2753  000E88                     u611:
  2754  000E88  EFF5  F006         	goto	l1286
  2755  000E8C                     u610:
  2756  000E8C                     
  2757                           ;C:/Programacao/Embarcada/ProjetoFinal_RafaelHadzic_2020010302.X/keypad.c: 73:     }
  2758  000E8C  2A0A               	incf	kpDebounce@i^0,f,c
  2759  000E8E  0E02               	movlw	2
  2760  000E90  640A               	cpfsgt	kpDebounce@i^0,c
  2761  000E92  EF4D  F007         	goto	u621
  2762  000E96  EF4F  F007         	goto	u620
  2763  000E9A                     u621:
  2764  000E9A  EFBE  F006         	goto	l1268
  2765  000E9E                     u620:
  2766  000E9E                     
  2767                           ;C:/Programacao/Embarcada/ProjetoFinal_RafaelHadzic_2020010302.X/keypad.c: 74:     if (v
      +                          alorAntigo == valorNovo) {
  2768  000E9E  501F               	movf	kpDebounce@valorNovo^0,w,c
  2769  000EA0  181D               	xorwf	kpDebounce@valorAntigo^0,w,c
  2770  000EA2  E107               	bnz	u631
  2771  000EA4  5020               	movf	(kpDebounce@valorNovo+1)^0,w,c
  2772  000EA6  181E               	xorwf	(kpDebounce@valorAntigo+1)^0,w,c
  2773  000EA8  A4D8               	btfss	status,2,c
  2774  000EAA  EF59  F007         	goto	u631
  2775  000EAE  EF5B  F007         	goto	u630
  2776  000EB2                     u631:
  2777  000EB2  EF5E  F007         	goto	l1304
  2778  000EB6                     u630:
  2779  000EB6                     
  2780                           ;C:/Programacao/Embarcada/ProjetoFinal_RafaelHadzic_2020010302.X/keypad.c: 75:         t
      +                          empo--;
  2781  000EB6  0628               	decf	kpDebounce@tempo^0,f,c
  2782                           
  2783                           ;C:/Programacao/Embarcada/ProjetoFinal_RafaelHadzic_2020010302.X/keypad.c: 76:     } els
      +                          e {
  2784  000EB8  EF64  F007         	goto	l183
  2785  000EBC                     l1304:
  2786                           
  2787                           ;C:/Programacao/Embarcada/ProjetoFinal_RafaelHadzic_2020010302.X/keypad.c: 77:         t
      +                          empo = 10;
  2788  000EBC  0E0A               	movlw	10
  2789  000EBE  6E28               	movwf	kpDebounce@tempo^0,c
  2790  000EC0                     
  2791                           ;C:/Programacao/Embarcada/ProjetoFinal_RafaelHadzic_2020010302.X/keypad.c: 78:         v
      +                          alorAntigo = valorNovo;
  2792  000EC0  C01F  F01D         	movff	kpDebounce@valorNovo,kpDebounce@valorAntigo
  2793  000EC4  C020  F01E         	movff	kpDebounce@valorNovo+1,kpDebounce@valorAntigo+1
  2794  000EC8                     l183:
  2795                           
  2796                           ;C:/Programacao/Embarcada/ProjetoFinal_RafaelHadzic_2020010302.X/keypad.c: 80:     if (t
      +                          empo == 0) {
  2797  000EC8  5028               	movf	kpDebounce@tempo^0,w,c
  2798  000ECA  A4D8               	btfss	status,2,c
  2799  000ECC  EF6A  F007         	goto	u641
  2800  000ED0  EF6C  F007         	goto	u640
  2801  000ED4                     u641:
  2802  000ED4  EF70  F007         	goto	l184
  2803  000ED8                     u640:
  2804  000ED8                     
  2805                           ;C:/Programacao/Embarcada/ProjetoFinal_RafaelHadzic_2020010302.X/keypad.c: 81:         v
      +                          alor = valorAntigo;
  2806  000ED8  C01D  F021         	movff	kpDebounce@valorAntigo,_valor
  2807  000EDC  C01E  F022         	movff	kpDebounce@valorAntigo+1,_valor+1
  2808  000EE0                     l184:
  2809                           
  2810                           ;C:/Programacao/Embarcada/ProjetoFinal_RafaelHadzic_2020010302.X/keypad.c: 83:     PORTD
      +                           = old_D;
  2811  000EE0  C006  FF83         	movff	kpDebounce@old_D,3971	;volatile
  2812  000EE4                     
  2813                           ;C:/Programacao/Embarcada/ProjetoFinal_RafaelHadzic_2020010302.X/keypad.c: 84:     TRISD
      +                           = 0x00;
  2814  000EE4  0E00               	movlw	0
  2815  000EE6  6E95               	movwf	149,c	;volatile
  2816  000EE8  0012               	return		;funcret
  2817  000EEA                     __end_of_kpDebounce:
  2818                           	callstack 0
  2819                           
  2820 ;; *************** function _initial *****************
  2821 ;; Defined at:
  2822 ;;		line 24 in file "C:/Programacao/Embarcada/ProjetoFinal_RafaelHadzic_2020010302.X/main.c"
  2823 ;; Parameters:    Size  Location     Type
  2824 ;;		None
  2825 ;; Auto vars:     Size  Location     Type
  2826 ;;  i               1    0        unsigned char 
  2827 ;; Return value:  Size  Location     Type
  2828 ;;                  1    wreg      void 
  2829 ;; Registers used:
  2830 ;;		wreg, status,2, status,0, tblptrl, tblptrh, tblptru, cstack
  2831 ;; Tracked objects:
  2832 ;;		On entry : 0/0
  2833 ;;		On exit  : 0/0
  2834 ;;		Unchanged: 0/0
  2835 ;; Data sizes:     COMRAM   BANK0   BANK1   BANK2   BANK3   BANK4   BANK5
  2836 ;;      Params:         0       0       0       0       0       0       0
  2837 ;;      Locals:         0       0       0       0       0       0       0
  2838 ;;      Temps:          0       0       0       0       0       0       0
  2839 ;;      Totals:         0       0       0       0       0       0       0
  2840 ;;Total ram usage:        0 bytes
  2841 ;; Hardware stack levels used: 1
  2842 ;; Hardware stack levels required when called: 3
  2843 ;; This function calls:
  2844 ;;		_atraso_ms
  2845 ;;		_lcd_cmd
  2846 ;;		_lcd_init
  2847 ;;		_lcd_str
  2848 ;; This function is called by:
  2849 ;;		_main
  2850 ;; This function uses a non-reentrant model
  2851 ;;
  2852                           
  2853                           	psect	text15
  2854  00120A                     __ptext15:
  2855                           	callstack 0
  2856  00120A                     _initial:
  2857                           	callstack 27
  2858  00120A                     
  2859                           ;C:/Programacao/Embarcada/ProjetoFinal_RafaelHadzic_2020010302.X/main.c: 25:     unsigne
      +                          d char i;;C:/Programacao/Embarcada/ProjetoFinal_RafaelHadzic_2020010302.X/main.c: 26:   
      +                            lcd_init();
  2860  00120A  ECB7  F009         	call	_lcd_init	;wreg free
  2861                           
  2862                           ;C:/Programacao/Embarcada/ProjetoFinal_RafaelHadzic_2020010302.X/main.c: 27:     lcd_cmd
      +                          (0x80);
  2863  00120E  0E80               	movlw	128
  2864  001210  ECC0  F00A         	call	_lcd_cmd
  2865  001214                     
  2866                           ;C:/Programacao/Embarcada/ProjetoFinal_RafaelHadzic_2020010302.X/main.c: 28:     lcd_str
      +                          ("Iniciando...");
  2867  001214  0E38               	movlw	low STR_1
  2868  001216  6E07               	movwf	lcd_str@str^0,c
  2869  001218  0E06               	movlw	high STR_1
  2870  00121A  6E08               	movwf	(lcd_str@str+1)^0,c
  2871  00121C  EC64  F00A         	call	_lcd_str	;wreg free
  2872  001220                     
  2873                           ;C:/Programacao/Embarcada/ProjetoFinal_RafaelHadzic_2020010302.X/main.c: 29:     atraso_
      +                          ms(500);
  2874  001220  0E01               	movlw	1
  2875  001222  6E02               	movwf	(atraso_ms@valor+1)^0,c
  2876  001224  0EF4               	movlw	244
  2877  001226  6E01               	movwf	atraso_ms@valor^0,c
  2878  001228  EC8C  F00A         	call	_atraso_ms	;wreg free
  2879  00122C                     
  2880                           ;C:/Programacao/Embarcada/ProjetoFinal_RafaelHadzic_2020010302.X/main.c: 30:     lcd_cmd
      +                          (0xC0);
  2881  00122C  0EC0               	movlw	192
  2882  00122E  ECC0  F00A         	call	_lcd_cmd
  2883  001232                     
  2884                           ;C:/Programacao/Embarcada/ProjetoFinal_RafaelHadzic_2020010302.X/main.c: 31:     lcd_str
      +                          ("Aguarde");
  2885  001232  0E70               	movlw	low STR_2
  2886  001234  6E07               	movwf	lcd_str@str^0,c
  2887  001236  0E06               	movlw	high STR_2
  2888  001238  6E08               	movwf	(lcd_str@str+1)^0,c
  2889  00123A  EC64  F00A         	call	_lcd_str	;wreg free
  2890                           
  2891                           ;C:/Programacao/Embarcada/ProjetoFinal_RafaelHadzic_2020010302.X/main.c: 32:     atraso_
      +                          ms(1000);
  2892  00123E  0E03               	movlw	3
  2893  001240  6E02               	movwf	(atraso_ms@valor+1)^0,c
  2894  001242  0EE8               	movlw	232
  2895  001244  6E01               	movwf	atraso_ms@valor^0,c
  2896  001246  EC8C  F00A         	call	_atraso_ms	;wreg free
  2897                           
  2898                           ;C:/Programacao/Embarcada/ProjetoFinal_RafaelHadzic_2020010302.X/main.c: 33:     lcd_cmd
      +                          (0x01);
  2899  00124A  0E01               	movlw	1
  2900  00124C  ECC0  F00A         	call	_lcd_cmd
  2901                           
  2902                           ;C:/Programacao/Embarcada/ProjetoFinal_RafaelHadzic_2020010302.X/main.c: 34:     lcd_cmd
      +                          (0x80);
  2903  001250  0E80               	movlw	128
  2904  001252  ECC0  F00A         	call	_lcd_cmd
  2905  001256                     
  2906                           ;C:/Programacao/Embarcada/ProjetoFinal_RafaelHadzic_2020010302.X/main.c: 35:     lcd_str
      +                          ("Aperte * para");
  2907  001256  0E2A               	movlw	low STR_3
  2908  001258  6E07               	movwf	lcd_str@str^0,c
  2909  00125A  0E06               	movlw	high STR_3
  2910  00125C  6E08               	movwf	(lcd_str@str+1)^0,c
  2911  00125E  EC64  F00A         	call	_lcd_str	;wreg free
  2912  001262                     
  2913                           ;C:/Programacao/Embarcada/ProjetoFinal_RafaelHadzic_2020010302.X/main.c: 36:     lcd_cmd
      +                          (0xC0);
  2914  001262  0EC0               	movlw	192
  2915  001264  ECC0  F00A         	call	_lcd_cmd
  2916                           
  2917                           ;C:/Programacao/Embarcada/ProjetoFinal_RafaelHadzic_2020010302.X/main.c: 37:     lcd_str
      +                          ("simular as");
  2918  001268  0E5B               	movlw	low STR_4
  2919  00126A  6E07               	movwf	lcd_str@str^0,c
  2920  00126C  0E06               	movlw	high STR_4
  2921  00126E  6E08               	movwf	(lcd_str@str+1)^0,c
  2922  001270  EC64  F00A         	call	_lcd_str	;wreg free
  2923  001274                     
  2924                           ;C:/Programacao/Embarcada/ProjetoFinal_RafaelHadzic_2020010302.X/main.c: 38:     atraso_
      +                          ms(2000);
  2925  001274  0E07               	movlw	7
  2926  001276  6E02               	movwf	(atraso_ms@valor+1)^0,c
  2927  001278  0ED0               	movlw	208
  2928  00127A  6E01               	movwf	atraso_ms@valor^0,c
  2929  00127C  EC8C  F00A         	call	_atraso_ms	;wreg free
  2930  001280                     
  2931                           ;C:/Programacao/Embarcada/ProjetoFinal_RafaelHadzic_2020010302.X/main.c: 39:     lcd_cmd
      +                          (0x01);
  2932  001280  0E01               	movlw	1
  2933  001282  ECC0  F00A         	call	_lcd_cmd
  2934  001286                     
  2935                           ;C:/Programacao/Embarcada/ProjetoFinal_RafaelHadzic_2020010302.X/main.c: 40:     lcd_cmd
      +                          (0x80);
  2936  001286  0E80               	movlw	128
  2937  001288  ECC0  F00A         	call	_lcd_cmd
  2938  00128C                     
  2939                           ;C:/Programacao/Embarcada/ProjetoFinal_RafaelHadzic_2020010302.X/main.c: 41:     lcd_str
      +                          ("batidas do");
  2940  00128C  0E50               	movlw	low STR_5
  2941  00128E  6E07               	movwf	lcd_str@str^0,c
  2942  001290  0E06               	movlw	high STR_5
  2943  001292  6E08               	movwf	(lcd_str@str+1)^0,c
  2944  001294  EC64  F00A         	call	_lcd_str	;wreg free
  2945                           
  2946                           ;C:/Programacao/Embarcada/ProjetoFinal_RafaelHadzic_2020010302.X/main.c: 42:     lcd_cmd
      +                          (0xC0);
  2947  001298  0EC0               	movlw	192
  2948  00129A  ECC0  F00A         	call	_lcd_cmd
  2949  00129E                     
  2950                           ;C:/Programacao/Embarcada/ProjetoFinal_RafaelHadzic_2020010302.X/main.c: 43:     lcd_str
      +                          ("coracao");
  2951  00129E  0E78               	movlw	low STR_6
  2952  0012A0  6E07               	movwf	lcd_str@str^0,c
  2953  0012A2  0E06               	movlw	high STR_6
  2954  0012A4  6E08               	movwf	(lcd_str@str+1)^0,c
  2955  0012A6  EC64  F00A         	call	_lcd_str	;wreg free
  2956  0012AA                     
  2957                           ;C:/Programacao/Embarcada/ProjetoFinal_RafaelHadzic_2020010302.X/main.c: 44:     atraso_
      +                          ms(2000);
  2958  0012AA  0E07               	movlw	7
  2959  0012AC  6E02               	movwf	(atraso_ms@valor+1)^0,c
  2960  0012AE  0ED0               	movlw	208
  2961  0012B0  6E01               	movwf	atraso_ms@valor^0,c
  2962  0012B2  EC8C  F00A         	call	_atraso_ms	;wreg free
  2963  0012B6                     
  2964                           ;C:/Programacao/Embarcada/ProjetoFinal_RafaelHadzic_2020010302.X/main.c: 45:     lcd_cmd
      +                          (0x01);
  2965  0012B6  0E01               	movlw	1
  2966  0012B8  ECC0  F00A         	call	_lcd_cmd
  2967  0012BC  0012               	return		;funcret
  2968  0012BE                     __end_of_initial:
  2969                           	callstack 0
  2970                           
  2971 ;; *************** function _lcd_str *****************
  2972 ;; Defined at:
  2973 ;;		line 76 in file "C:/Programacao/Embarcada/ProjetoFinal_RafaelHadzic_2020010302.X/lcd.c"
  2974 ;; Parameters:    Size  Location     Type
  2975 ;;  str             2    6[COMRAM] PTR const unsigned char 
  2976 ;;		 -> STR_10(6), STR_9(10), STR_7(11), STR_6(8), 
  2977 ;;		 -> STR_5(11), STR_4(11), STR_3(14), STR_2(8), 
  2978 ;;		 -> STR_1(13), 
  2979 ;; Auto vars:     Size  Location     Type
  2980 ;;  i               1   10[COMRAM] unsigned char 
  2981 ;; Return value:  Size  Location     Type
  2982 ;;                  1    wreg      void 
  2983 ;; Registers used:
  2984 ;;		wreg, status,2, status,0, tblptrl, tblptrh, tblptru, cstack
  2985 ;; Tracked objects:
  2986 ;;		On entry : 0/0
  2987 ;;		On exit  : 0/0
  2988 ;;		Unchanged: 0/0
  2989 ;; Data sizes:     COMRAM   BANK0   BANK1   BANK2   BANK3   BANK4   BANK5
  2990 ;;      Params:         2       0       0       0       0       0       0
  2991 ;;      Locals:         1       0       0       0       0       0       0
  2992 ;;      Temps:          2       0       0       0       0       0       0
  2993 ;;      Totals:         5       0       0       0       0       0       0
  2994 ;;Total ram usage:        5 bytes
  2995 ;; Hardware stack levels used: 1
  2996 ;; Hardware stack levels required when called: 2
  2997 ;; This function calls:
  2998 ;;		_lcd_dat
  2999 ;; This function is called by:
  3000 ;;		_initial
  3001 ;;		_main
  3002 ;; This function uses a non-reentrant model
  3003 ;;
  3004                           
  3005                           	psect	text16
  3006  0014C8                     __ptext16:
  3007                           	callstack 0
  3008  0014C8                     _lcd_str:
  3009                           	callstack 28
  3010  0014C8                     
  3011                           ;C:/Programacao/Embarcada/ProjetoFinal_RafaelHadzic_2020010302.X/lcd.c: 76: void lcd_str
      +                          (const char* str);C:/Programacao/Embarcada/ProjetoFinal_RafaelHadzic_2020010302.X/lcd.c:
      +                           77: {;C:/Programacao/Embarcada/ProjetoFinal_RafaelHadzic_2020010302.X/lcd.c: 78:  unsig
      +                          ned char i=0;
  3012  0014C8  0E00               	movlw	0
  3013  0014CA  6E0B               	movwf	lcd_str@i^0,c
  3014                           
  3015                           ;C:/Programacao/Embarcada/ProjetoFinal_RafaelHadzic_2020010302.X/lcd.c: 80:  while(str[i
      +                          ] != 0 )
  3016  0014CC  EF77  F00A         	goto	l1890
  3017  0014D0                     l1886:
  3018                           
  3019                           ;C:/Programacao/Embarcada/ProjetoFinal_RafaelHadzic_2020010302.X/lcd.c: 81:  {;C:/Progra
      +                          macao/Embarcada/ProjetoFinal_RafaelHadzic_2020010302.X/lcd.c: 82:    lcd_dat(str[i]);
  3020  0014D0  500B               	movf	lcd_str@i^0,w,c
  3021  0014D2  2407               	addwf	lcd_str@str^0,w,c
  3022  0014D4  6E09               	movwf	??_lcd_str^0,c
  3023  0014D6  0E00               	movlw	0
  3024  0014D8  2008               	addwfc	(lcd_str@str+1)^0,w,c
  3025  0014DA  6E0A               	movwf	(??_lcd_str+1)^0,c
  3026  0014DC  C009  FFF6         	movff	??_lcd_str,tblptrl
  3027  0014E0  C00A  FFF7         	movff	??_lcd_str+1,tblptrh
  3028  0014E4                     	if	0	;tblptru may be non-zero
  3029  0014E4                     	endif
  3030  0014E4                     	if	0	;tblptru may be non-zero
  3031  0014E4                     	endif
  3032  0014E4  0008               	tblrd		*
  3033  0014E6  50F5               	movf	tablat,w,c
  3034  0014E8  ECAB  F00A         	call	_lcd_dat
  3035  0014EC                     
  3036                           ;C:/Programacao/Embarcada/ProjetoFinal_RafaelHadzic_2020010302.X/lcd.c: 83:    i++;
  3037  0014EC  2A0B               	incf	lcd_str@i^0,f,c
  3038  0014EE                     l1890:
  3039                           
  3040                           ;C:/Programacao/Embarcada/ProjetoFinal_RafaelHadzic_2020010302.X/lcd.c: 80:  while(str[i
      +                          ] != 0 )
  3041  0014EE  500B               	movf	lcd_str@i^0,w,c
  3042  0014F0  2407               	addwf	lcd_str@str^0,w,c
  3043  0014F2  6E09               	movwf	??_lcd_str^0,c
  3044  0014F4  0E00               	movlw	0
  3045  0014F6  2008               	addwfc	(lcd_str@str+1)^0,w,c
  3046  0014F8  6E0A               	movwf	(??_lcd_str+1)^0,c
  3047  0014FA  C009  FFF6         	movff	??_lcd_str,tblptrl
  3048  0014FE  C00A  FFF7         	movff	??_lcd_str+1,tblptrh
  3049  001502                     	if	0	;tblptru may be non-zero
  3050  001502                     	endif
  3051  001502                     	if	0	;tblptru may be non-zero
  3052  001502                     	endif
  3053  001502  0008               	tblrd		*
  3054  001504  50F5               	movf	tablat,w,c
  3055  001506  0900               	iorlw	0
  3056  001508  A4D8               	btfss	status,2,c
  3057  00150A  EF89  F00A         	goto	u1471
  3058  00150E  EF8B  F00A         	goto	u1470
  3059  001512                     u1471:
  3060  001512  EF68  F00A         	goto	l1886
  3061  001516                     u1470:
  3062  001516  0012               	return		;funcret
  3063  001518                     __end_of_lcd_str:
  3064                           	callstack 0
  3065                           
  3066 ;; *************** function _lcd_dat *****************
  3067 ;; Defined at:
  3068 ;;		line 46 in file "C:/Programacao/Embarcada/ProjetoFinal_RafaelHadzic_2020010302.X/lcd.c"
  3069 ;; Parameters:    Size  Location     Type
  3070 ;;  val             1    wreg     unsigned char 
  3071 ;; Auto vars:     Size  Location     Type
  3072 ;;  val             1    5[COMRAM] unsigned char 
  3073 ;; Return value:  Size  Location     Type
  3074 ;;                  1    wreg      void 
  3075 ;; Registers used:
  3076 ;;		wreg, status,2, status,0, cstack
  3077 ;; Tracked objects:
  3078 ;;		On entry : 0/0
  3079 ;;		On exit  : 0/0
  3080 ;;		Unchanged: 0/0
  3081 ;; Data sizes:     COMRAM   BANK0   BANK1   BANK2   BANK3   BANK4   BANK5
  3082 ;;      Params:         0       0       0       0       0       0       0
  3083 ;;      Locals:         1       0       0       0       0       0       0
  3084 ;;      Temps:          0       0       0       0       0       0       0
  3085 ;;      Totals:         1       0       0       0       0       0       0
  3086 ;;Total ram usage:        1 bytes
  3087 ;; Hardware stack levels used: 1
  3088 ;; Hardware stack levels required when called: 1
  3089 ;; This function calls:
  3090 ;;		_atraso_ms
  3091 ;;		_lcd_wr
  3092 ;; This function is called by:
  3093 ;;		_lcd_str
  3094 ;; This function uses a non-reentrant model
  3095 ;;
  3096                           
  3097                           	psect	text17
  3098  001556                     __ptext17:
  3099                           	callstack 0
  3100  001556                     _lcd_dat:
  3101                           	callstack 28
  3102                           
  3103                           ;incstack = 0
  3104                           ;lcd_dat@val stored from wreg
  3105  001556  6E06               	movwf	lcd_dat@val^0,c
  3106  001558                     
  3107                           ;C:/Programacao/Embarcada/ProjetoFinal_RafaelHadzic_2020010302.X/lcd.c: 46: void lcd_dat
      +                          (unsigned char val);C:/Programacao/Embarcada/ProjetoFinal_RafaelHadzic_2020010302.X/lcd.
      +                          c: 47: {;C:/Programacao/Embarcada/ProjetoFinal_RafaelHadzic_2020010302.X/lcd.c: 48:  POR
      +                          TEbits.RE1=1;
  3108  001558  8284               	bsf	132,1,c	;volatile
  3109  00155A                     
  3110                           ;C:/Programacao/Embarcada/ProjetoFinal_RafaelHadzic_2020010302.X/lcd.c: 49:         lcd_
      +                          wr(val);
  3111  00155A  5006               	movf	lcd_dat@val^0,w,c
  3112  00155C  EC2F  F00B         	call	_lcd_wr
  3113  001560                     
  3114                           ;C:/Programacao/Embarcada/ProjetoFinal_RafaelHadzic_2020010302.X/lcd.c: 50:         PORT
      +                          Ebits.RE2=1;
  3115  001560  8484               	bsf	132,2,c	;volatile
  3116  001562                     
  3117                           ;C:/Programacao/Embarcada/ProjetoFinal_RafaelHadzic_2020010302.X/lcd.c: 51:         atra
      +                          so_ms(3);
  3118  001562  0E00               	movlw	0
  3119  001564  6E02               	movwf	(atraso_ms@valor+1)^0,c
  3120  001566  0E03               	movlw	3
  3121  001568  6E01               	movwf	atraso_ms@valor^0,c
  3122  00156A  EC8C  F00A         	call	_atraso_ms	;wreg free
  3123  00156E                     
  3124                           ;C:/Programacao/Embarcada/ProjetoFinal_RafaelHadzic_2020010302.X/lcd.c: 52:         PORT
      +                          Ebits.RE1=0;
  3125  00156E  9284               	bcf	132,1,c	;volatile
  3126  001570                     
  3127                           ;C:/Programacao/Embarcada/ProjetoFinal_RafaelHadzic_2020010302.X/lcd.c: 53:         atra
      +                          so_ms(3);
  3128  001570  0E00               	movlw	0
  3129  001572  6E02               	movwf	(atraso_ms@valor+1)^0,c
  3130  001574  0E03               	movlw	3
  3131  001576  6E01               	movwf	atraso_ms@valor^0,c
  3132  001578  EC8C  F00A         	call	_atraso_ms	;wreg free
  3133  00157C                     
  3134                           ;C:/Programacao/Embarcada/ProjetoFinal_RafaelHadzic_2020010302.X/lcd.c: 54:  PORTEbits.R
      +                          E1=1;
  3135  00157C  8284               	bsf	132,1,c	;volatile
  3136  00157E  0012               	return		;funcret
  3137  001580                     __end_of_lcd_dat:
  3138                           	callstack 0
  3139                           
  3140 ;; *************** function _lcd_init *****************
  3141 ;; Defined at:
  3142 ;;		line 57 in file "C:/Programacao/Embarcada/ProjetoFinal_RafaelHadzic_2020010302.X/lcd.c"
  3143 ;; Parameters:    Size  Location     Type
  3144 ;;		None
  3145 ;; Auto vars:     Size  Location     Type
  3146 ;;		None
  3147 ;; Return value:  Size  Location     Type
  3148 ;;                  1    wreg      void 
  3149 ;; Registers used:
  3150 ;;		wreg, status,2, status,0, cstack
  3151 ;; Tracked objects:
  3152 ;;		On entry : 0/0
  3153 ;;		On exit  : 0/0
  3154 ;;		Unchanged: 0/0
  3155 ;; Data sizes:     COMRAM   BANK0   BANK1   BANK2   BANK3   BANK4   BANK5
  3156 ;;      Params:         0       0       0       0       0       0       0
  3157 ;;      Locals:         0       0       0       0       0       0       0
  3158 ;;      Temps:          0       0       0       0       0       0       0
  3159 ;;      Totals:         0       0       0       0       0       0       0
  3160 ;;Total ram usage:        0 bytes
  3161 ;; Hardware stack levels used: 1
  3162 ;; Hardware stack levels required when called: 2
  3163 ;; This function calls:
  3164 ;;		_atraso_ms
  3165 ;;		_lcd_cmd
  3166 ;; This function is called by:
  3167 ;;		_initial
  3168 ;; This function uses a non-reentrant model
  3169 ;;
  3170                           
  3171                           	psect	text18
  3172  00136E                     __ptext18:
  3173                           	callstack 0
  3174  00136E                     _lcd_init:
  3175                           	callstack 27
  3176  00136E                     
  3177                           ;C:/Programacao/Embarcada/ProjetoFinal_RafaelHadzic_2020010302.X/lcd.c: 59:  PORTEbits.R
      +                          E1=0;
  3178  00136E  9284               	bcf	132,1,c	;volatile
  3179                           
  3180                           ;C:/Programacao/Embarcada/ProjetoFinal_RafaelHadzic_2020010302.X/lcd.c: 60:  PORTEbits.R
      +                          E2=0;
  3181  001370  9484               	bcf	132,2,c	;volatile
  3182  001372                     
  3183                           ;C:/Programacao/Embarcada/ProjetoFinal_RafaelHadzic_2020010302.X/lcd.c: 61:  atraso_ms(2
      +                          0);
  3184  001372  0E00               	movlw	0
  3185  001374  6E02               	movwf	(atraso_ms@valor+1)^0,c
  3186  001376  0E14               	movlw	20
  3187  001378  6E01               	movwf	atraso_ms@valor^0,c
  3188  00137A  EC8C  F00A         	call	_atraso_ms	;wreg free
  3189  00137E                     
  3190                           ;C:/Programacao/Embarcada/ProjetoFinal_RafaelHadzic_2020010302.X/lcd.c: 62:  PORTEbits.R
      +                          E1=1;
  3191  00137E  8284               	bsf	132,1,c	;volatile
  3192                           
  3193                           ;C:/Programacao/Embarcada/ProjetoFinal_RafaelHadzic_2020010302.X/lcd.c: 64:  lcd_cmd(0x3
      +                          8);
  3194  001380  0E38               	movlw	56
  3195  001382  ECC0  F00A         	call	_lcd_cmd
  3196                           
  3197                           ;C:/Programacao/Embarcada/ProjetoFinal_RafaelHadzic_2020010302.X/lcd.c: 65:  atraso_ms(5
      +                          );
  3198  001386  0E00               	movlw	0
  3199  001388  6E02               	movwf	(atraso_ms@valor+1)^0,c
  3200  00138A  0E05               	movlw	5
  3201  00138C  6E01               	movwf	atraso_ms@valor^0,c
  3202  00138E  EC8C  F00A         	call	_atraso_ms	;wreg free
  3203                           
  3204                           ;C:/Programacao/Embarcada/ProjetoFinal_RafaelHadzic_2020010302.X/lcd.c: 66:  lcd_cmd(0x3
      +                          8);
  3205  001392  0E38               	movlw	56
  3206  001394  ECC0  F00A         	call	_lcd_cmd
  3207                           
  3208                           ;C:/Programacao/Embarcada/ProjetoFinal_RafaelHadzic_2020010302.X/lcd.c: 67:         atra
      +                          so_ms(1);
  3209  001398  0E00               	movlw	0
  3210  00139A  6E02               	movwf	(atraso_ms@valor+1)^0,c
  3211  00139C  0E01               	movlw	1
  3212  00139E  6E01               	movwf	atraso_ms@valor^0,c
  3213  0013A0  EC8C  F00A         	call	_atraso_ms	;wreg free
  3214                           
  3215                           ;C:/Programacao/Embarcada/ProjetoFinal_RafaelHadzic_2020010302.X/lcd.c: 68:  lcd_cmd(0x3
      +                          8);
  3216  0013A4  0E38               	movlw	56
  3217  0013A6  ECC0  F00A         	call	_lcd_cmd
  3218                           
  3219                           ;C:/Programacao/Embarcada/ProjetoFinal_RafaelHadzic_2020010302.X/lcd.c: 69:  lcd_cmd(0x0
      +                          8);
  3220  0013AA  0E08               	movlw	8
  3221  0013AC  ECC0  F00A         	call	_lcd_cmd
  3222                           
  3223                           ;C:/Programacao/Embarcada/ProjetoFinal_RafaelHadzic_2020010302.X/lcd.c: 70:  lcd_cmd(0x0
      +                          F);
  3224  0013B0  0E0F               	movlw	15
  3225  0013B2  ECC0  F00A         	call	_lcd_cmd
  3226                           
  3227                           ;C:/Programacao/Embarcada/ProjetoFinal_RafaelHadzic_2020010302.X/lcd.c: 71:  lcd_cmd(0x0
      +                          1);
  3228  0013B6  0E01               	movlw	1
  3229  0013B8  ECC0  F00A         	call	_lcd_cmd
  3230                           
  3231                           ;C:/Programacao/Embarcada/ProjetoFinal_RafaelHadzic_2020010302.X/lcd.c: 72:  lcd_cmd(0x3
      +                          8);
  3232  0013BC  0E38               	movlw	56
  3233  0013BE  ECC0  F00A         	call	_lcd_cmd
  3234                           
  3235                           ;C:/Programacao/Embarcada/ProjetoFinal_RafaelHadzic_2020010302.X/lcd.c: 73:     lcd_cmd(
      +                          0x80);
  3236  0013C2  0E80               	movlw	128
  3237  0013C4  ECC0  F00A         	call	_lcd_cmd
  3238  0013C8  0012               	return		;funcret
  3239  0013CA                     __end_of_lcd_init:
  3240                           	callstack 0
  3241                           
  3242 ;; *************** function _lcd_cmd *****************
  3243 ;; Defined at:
  3244 ;;		line 35 in file "C:/Programacao/Embarcada/ProjetoFinal_RafaelHadzic_2020010302.X/lcd.c"
  3245 ;; Parameters:    Size  Location     Type
  3246 ;;  val             1    wreg     unsigned char 
  3247 ;; Auto vars:     Size  Location     Type
  3248 ;;  val             1    5[COMRAM] unsigned char 
  3249 ;; Return value:  Size  Location     Type
  3250 ;;                  1    wreg      void 
  3251 ;; Registers used:
  3252 ;;		wreg, status,2, status,0, cstack
  3253 ;; Tracked objects:
  3254 ;;		On entry : 0/0
  3255 ;;		On exit  : 0/0
  3256 ;;		Unchanged: 0/0
  3257 ;; Data sizes:     COMRAM   BANK0   BANK1   BANK2   BANK3   BANK4   BANK5
  3258 ;;      Params:         0       0       0       0       0       0       0
  3259 ;;      Locals:         1       0       0       0       0       0       0
  3260 ;;      Temps:          0       0       0       0       0       0       0
  3261 ;;      Totals:         1       0       0       0       0       0       0
  3262 ;;Total ram usage:        1 bytes
  3263 ;; Hardware stack levels used: 1
  3264 ;; Hardware stack levels required when called: 1
  3265 ;; This function calls:
  3266 ;;		_atraso_ms
  3267 ;;		_lcd_wr
  3268 ;; This function is called by:
  3269 ;;		_lcd_init
  3270 ;;		_initial
  3271 ;;		_main
  3272 ;; This function uses a non-reentrant model
  3273 ;;
  3274                           
  3275                           	psect	text19
  3276  001580                     __ptext19:
  3277                           	callstack 0
  3278  001580                     _lcd_cmd:
  3279                           	callstack 29
  3280                           
  3281                           ;incstack = 0
  3282                           ;lcd_cmd@val stored from wreg
  3283  001580  6E06               	movwf	lcd_cmd@val^0,c
  3284  001582                     
  3285                           ;C:/Programacao/Embarcada/ProjetoFinal_RafaelHadzic_2020010302.X/lcd.c: 35: void lcd_cmd
      +                          (unsigned char val);C:/Programacao/Embarcada/ProjetoFinal_RafaelHadzic_2020010302.X/lcd.
      +                          c: 36: {;C:/Programacao/Embarcada/ProjetoFinal_RafaelHadzic_2020010302.X/lcd.c: 37:  POR
      +                          TEbits.RE1=1;
  3286  001582  8284               	bsf	132,1,c	;volatile
  3287  001584                     
  3288                           ;C:/Programacao/Embarcada/ProjetoFinal_RafaelHadzic_2020010302.X/lcd.c: 38:         lcd_
      +                          wr(val);
  3289  001584  5006               	movf	lcd_cmd@val^0,w,c
  3290  001586  EC2F  F00B         	call	_lcd_wr
  3291  00158A                     
  3292                           ;C:/Programacao/Embarcada/ProjetoFinal_RafaelHadzic_2020010302.X/lcd.c: 39:         PORT
      +                          Ebits.RE2=0;
  3293  00158A  9484               	bcf	132,2,c	;volatile
  3294  00158C                     
  3295                           ;C:/Programacao/Embarcada/ProjetoFinal_RafaelHadzic_2020010302.X/lcd.c: 40:         atra
      +                          so_ms(3);
  3296  00158C  0E00               	movlw	0
  3297  00158E  6E02               	movwf	(atraso_ms@valor+1)^0,c
  3298  001590  0E03               	movlw	3
  3299  001592  6E01               	movwf	atraso_ms@valor^0,c
  3300  001594  EC8C  F00A         	call	_atraso_ms	;wreg free
  3301  001598                     
  3302                           ;C:/Programacao/Embarcada/ProjetoFinal_RafaelHadzic_2020010302.X/lcd.c: 41:         PORT
      +                          Ebits.RE1=0;
  3303  001598  9284               	bcf	132,1,c	;volatile
  3304  00159A                     
  3305                           ;C:/Programacao/Embarcada/ProjetoFinal_RafaelHadzic_2020010302.X/lcd.c: 42:         atra
      +                          so_ms(3);
  3306  00159A  0E00               	movlw	0
  3307  00159C  6E02               	movwf	(atraso_ms@valor+1)^0,c
  3308  00159E  0E03               	movlw	3
  3309  0015A0  6E01               	movwf	atraso_ms@valor^0,c
  3310  0015A2  EC8C  F00A         	call	_atraso_ms	;wreg free
  3311  0015A6                     
  3312                           ;C:/Programacao/Embarcada/ProjetoFinal_RafaelHadzic_2020010302.X/lcd.c: 43:  PORTEbits.R
      +                          E1=1;
  3313  0015A6  8284               	bsf	132,1,c	;volatile
  3314  0015A8  0012               	return		;funcret
  3315  0015AA                     __end_of_lcd_cmd:
  3316                           	callstack 0
  3317                           
  3318 ;; *************** function _lcd_wr *****************
  3319 ;; Defined at:
  3320 ;;		line 30 in file "C:/Programacao/Embarcada/ProjetoFinal_RafaelHadzic_2020010302.X/lcd.c"
  3321 ;; Parameters:    Size  Location     Type
  3322 ;;  val             1    wreg     unsigned char 
  3323 ;; Auto vars:     Size  Location     Type
  3324 ;;  val             1    0[COMRAM] unsigned char 
  3325 ;; Return value:  Size  Location     Type
  3326 ;;                  1    wreg      void 
  3327 ;; Registers used:
  3328 ;;		wreg
  3329 ;; Tracked objects:
  3330 ;;		On entry : 0/0
  3331 ;;		On exit  : 0/0
  3332 ;;		Unchanged: 0/0
  3333 ;; Data sizes:     COMRAM   BANK0   BANK1   BANK2   BANK3   BANK4   BANK5
  3334 ;;      Params:         0       0       0       0       0       0       0
  3335 ;;      Locals:         1       0       0       0       0       0       0
  3336 ;;      Temps:          0       0       0       0       0       0       0
  3337 ;;      Totals:         1       0       0       0       0       0       0
  3338 ;;Total ram usage:        1 bytes
  3339 ;; Hardware stack levels used: 1
  3340 ;; This function calls:
  3341 ;;		Nothing
  3342 ;; This function is called by:
  3343 ;;		_lcd_cmd
  3344 ;;		_lcd_dat
  3345 ;; This function uses a non-reentrant model
  3346 ;;
  3347                           
  3348                           	psect	text20
  3349  00165E                     __ptext20:
  3350                           	callstack 0
  3351  00165E                     _lcd_wr:
  3352                           	callstack 28
  3353                           
  3354                           ;incstack = 0
  3355                           ;lcd_wr@val stored from wreg
  3356  00165E  6E01               	movwf	lcd_wr@val^0,c
  3357  001660                     
  3358                           ;C:/Programacao/Embarcada/ProjetoFinal_RafaelHadzic_2020010302.X/lcd.c: 30: void lcd_wr(
      +                          unsigned char val);C:/Programacao/Embarcada/ProjetoFinal_RafaelHadzic_2020010302.X/lcd.c
      +                          : 31: {;C:/Programacao/Embarcada/ProjetoFinal_RafaelHadzic_2020010302.X/lcd.c: 32:   POR
      +                          TD=val;
  3359  001660  C001  FF83         	movff	lcd_wr@val,3971	;volatile
  3360  001664  0012               	return		;funcret
  3361  001666                     __end_of_lcd_wr:
  3362                           	callstack 0
  3363                           
  3364 ;; *************** function _atraso_ms *****************
  3365 ;; Defined at:
  3366 ;;		line 26 in file "C:/Programacao/Embarcada/ProjetoFinal_RafaelHadzic_2020010302.X/atraso.c"
  3367 ;; Parameters:    Size  Location     Type
  3368 ;;  valor           2    0[COMRAM] unsigned int 
  3369 ;; Auto vars:     Size  Location     Type
  3370 ;;  i               2    2[COMRAM] unsigned int 
  3371 ;;  j               1    4[COMRAM] unsigned char 
  3372 ;; Return value:  Size  Location     Type
  3373 ;;                  1    wreg      void 
  3374 ;; Registers used:
  3375 ;;		wreg, status,2, status,0
  3376 ;; Tracked objects:
  3377 ;;		On entry : 0/0
  3378 ;;		On exit  : 0/0
  3379 ;;		Unchanged: 0/0
  3380 ;; Data sizes:     COMRAM   BANK0   BANK1   BANK2   BANK3   BANK4   BANK5
  3381 ;;      Params:         2       0       0       0       0       0       0
  3382 ;;      Locals:         3       0       0       0       0       0       0
  3383 ;;      Temps:          0       0       0       0       0       0       0
  3384 ;;      Totals:         5       0       0       0       0       0       0
  3385 ;;Total ram usage:        5 bytes
  3386 ;; Hardware stack levels used: 1
  3387 ;; This function calls:
  3388 ;;		Nothing
  3389 ;; This function is called by:
  3390 ;;		_lcd_cmd
  3391 ;;		_lcd_dat
  3392 ;;		_lcd_init
  3393 ;;		_initial
  3394 ;;		_main
  3395 ;;		_serial_rx
  3396 ;; This function uses a non-reentrant model
  3397 ;;
  3398                           
  3399                           	psect	text21
  3400  001518                     __ptext21:
  3401                           	callstack 0
  3402  001518                     _atraso_ms:
  3403                           	callstack 28
  3404  001518                     
  3405                           ;C:/Programacao/Embarcada/ProjetoFinal_RafaelHadzic_2020010302.X/atraso.c: 26: void atra
      +                          so_ms(unsigned int valor);C:/Programacao/Embarcada/ProjetoFinal_RafaelHadzic_2020010302.
      +                          X/atraso.c: 27: {;C:/Programacao/Embarcada/ProjetoFinal_RafaelHadzic_2020010302.X/atraso
      +                          .c: 28: unsigned int i;;C:/Programacao/Embarcada/ProjetoFinal_RafaelHadzic_2020010302.X/
      +                          atraso.c: 29: unsigned char j;;C:/Programacao/Embarcada/ProjetoFinal_RafaelHadzic_202001
      +                          0302.X/atraso.c: 31:  for (i =0; i< valor; i++)
  3406  001518  0E00               	movlw	0
  3407  00151A  6E04               	movwf	(atraso_ms@i+1)^0,c
  3408  00151C  0E00               	movlw	0
  3409  00151E  6E03               	movwf	atraso_ms@i^0,c
  3410  001520  EF9F  F00A         	goto	l1768
  3411  001524                     l1756:
  3412                           
  3413                           ;C:/Programacao/Embarcada/ProjetoFinal_RafaelHadzic_2020010302.X/atraso.c: 32:  {;C:/Pro
      +                          gramacao/Embarcada/ProjetoFinal_RafaelHadzic_2020010302.X/atraso.c: 34:   for (j =0 ; j 
      +                          < 200; j++)
  3414  001524  0E00               	movlw	0
  3415  001526  6E05               	movwf	atraso_ms@j^0,c
  3416  001528                     l1762:
  3417                           
  3418                           ;C:/Programacao/Embarcada/ProjetoFinal_RafaelHadzic_2020010302.X/atraso.c: 35:    {;C:/P
      +                          rogramacao/Embarcada/ProjetoFinal_RafaelHadzic_2020010302.X/atraso.c: 38:    }
  3419  001528  2A05               	incf	atraso_ms@j^0,f,c
  3420  00152A  0EC7               	movlw	199
  3421  00152C  6405               	cpfsgt	atraso_ms@j^0,c
  3422  00152E  EF9B  F00A         	goto	u1051
  3423  001532  EF9D  F00A         	goto	u1050
  3424  001536                     u1051:
  3425  001536  EF94  F00A         	goto	l1762
  3426  00153A                     u1050:
  3427  00153A                     
  3428                           ;C:/Programacao/Embarcada/ProjetoFinal_RafaelHadzic_2020010302.X/atraso.c: 39:  }
  3429  00153A  4A03               	infsnz	atraso_ms@i^0,f,c
  3430  00153C  2A04               	incf	(atraso_ms@i+1)^0,f,c
  3431  00153E                     l1768:
  3432  00153E  5001               	movf	atraso_ms@valor^0,w,c
  3433  001540  5C03               	subwf	atraso_ms@i^0,w,c
  3434  001542  5002               	movf	(atraso_ms@valor+1)^0,w,c
  3435  001544  5804               	subwfb	(atraso_ms@i+1)^0,w,c
  3436  001546  A0D8               	btfss	status,0,c
  3437  001548  EFA8  F00A         	goto	u1061
  3438  00154C  EFAA  F00A         	goto	u1060
  3439  001550                     u1061:
  3440  001550  EF92  F00A         	goto	l1756
  3441  001554                     u1060:
  3442  001554  0012               	return		;funcret
  3443  001556                     __end_of_atraso_ms:
  3444                           	callstack 0
  3445                           
  3446 ;; *************** function ___wmul *****************
  3447 ;; Defined at:
  3448 ;;		line 15 in file "C:\Program Files\Microchip\xc8\v2.32\pic\sources\c99\common\Umul16.c"
  3449 ;; Parameters:    Size  Location     Type
  3450 ;;  multiplier      2    0[COMRAM] unsigned int 
  3451 ;;  multiplicand    2    2[COMRAM] unsigned int 
  3452 ;; Auto vars:     Size  Location     Type
  3453 ;;  product         2    4[COMRAM] unsigned int 
  3454 ;; Return value:  Size  Location     Type
  3455 ;;                  2    0[COMRAM] unsigned int 
  3456 ;; Registers used:
  3457 ;;		wreg, status,2, status,0, prodl, prodh
  3458 ;; Tracked objects:
  3459 ;;		On entry : 0/0
  3460 ;;		On exit  : 0/0
  3461 ;;		Unchanged: 0/0
  3462 ;; Data sizes:     COMRAM   BANK0   BANK1   BANK2   BANK3   BANK4   BANK5
  3463 ;;      Params:         4       0       0       0       0       0       0
  3464 ;;      Locals:         2       0       0       0       0       0       0
  3465 ;;      Temps:          0       0       0       0       0       0       0
  3466 ;;      Totals:         6       0       0       0       0       0       0
  3467 ;;Total ram usage:        6 bytes
  3468 ;; Hardware stack levels used: 1
  3469 ;; This function calls:
  3470 ;;		Nothing
  3471 ;; This function is called by:
  3472 ;;		_main
  3473 ;;		_pwmSet1
  3474 ;;		_pwmSet2
  3475 ;; This function uses a non-reentrant model
  3476 ;;
  3477                           
  3478                           	psect	text22
  3479  0015D0                     __ptext22:
  3480                           	callstack 0
  3481  0015D0                     ___wmul:
  3482                           	callstack 30
  3483  0015D0  5001               	movf	___wmul@multiplier^0,w,c
  3484  0015D2  0203               	mulwf	___wmul@multiplicand^0,c
  3485  0015D4  CFF3 F005          	movff	prodl,___wmul@product
  3486  0015D8  CFF4 F006          	movff	prodh,___wmul@product+1
  3487  0015DC  5001               	movf	___wmul@multiplier^0,w,c
  3488  0015DE  0204               	mulwf	(___wmul@multiplicand+1)^0,c
  3489  0015E0  50F3               	movf	243,w,c
  3490  0015E2  2606               	addwf	(___wmul@product+1)^0,f,c
  3491  0015E4  5002               	movf	(___wmul@multiplier+1)^0,w,c
  3492  0015E6  0203               	mulwf	___wmul@multiplicand^0,c
  3493  0015E8  50F3               	movf	243,w,c
  3494  0015EA  2606               	addwf	(___wmul@product+1)^0,f,c
  3495  0015EC  C005  F001         	movff	___wmul@product,?___wmul
  3496  0015F0  C006  F002         	movff	___wmul@product+1,?___wmul+1
  3497  0015F4  0012               	return		;funcret
  3498  0015F6                     __end_of___wmul:
  3499                           	callstack 0
  3500                           
  3501 ;; *************** function ___awmod *****************
  3502 ;; Defined at:
  3503 ;;		line 7 in file "C:\Program Files\Microchip\xc8\v2.32\pic\sources\c99\common\awmod.c"
  3504 ;; Parameters:    Size  Location     Type
  3505 ;;  dividend        2    8[COMRAM] int 
  3506 ;;  divisor         2   10[COMRAM] int 
  3507 ;; Auto vars:     Size  Location     Type
  3508 ;;  sign            1   13[COMRAM] unsigned char 
  3509 ;;  counter         1   12[COMRAM] unsigned char 
  3510 ;; Return value:  Size  Location     Type
  3511 ;;                  2    8[COMRAM] int 
  3512 ;; Registers used:
  3513 ;;		wreg, status,2, status,0
  3514 ;; Tracked objects:
  3515 ;;		On entry : 0/0
  3516 ;;		On exit  : 0/0
  3517 ;;		Unchanged: 0/0
  3518 ;; Data sizes:     COMRAM   BANK0   BANK1   BANK2   BANK3   BANK4   BANK5
  3519 ;;      Params:         4       0       0       0       0       0       0
  3520 ;;      Locals:         2       0       0       0       0       0       0
  3521 ;;      Temps:          0       0       0       0       0       0       0
  3522 ;;      Totals:         6       0       0       0       0       0       0
  3523 ;;Total ram usage:        6 bytes
  3524 ;; Hardware stack levels used: 1
  3525 ;; This function calls:
  3526 ;;		Nothing
  3527 ;; This function is called by:
  3528 ;;		_main
  3529 ;; This function uses a non-reentrant model
  3530 ;;
  3531                           
  3532                           	psect	text23
  3533  0012BE                     __ptext23:
  3534                           	callstack 0
  3535  0012BE                     ___awmod:
  3536                           	callstack 30
  3537  0012BE  0E00               	movlw	0
  3538  0012C0  6E0E               	movwf	___awmod@sign^0,c
  3539  0012C2  BE0A               	btfsc	(___awmod@dividend+1)^0,7,c
  3540  0012C4  EF68  F009         	goto	u1670
  3541  0012C8  EF66  F009         	goto	u1671
  3542  0012CC                     u1671:
  3543  0012CC  EF6E  F009         	goto	l2120
  3544  0012D0                     u1670:
  3545  0012D0  6C09               	negf	___awmod@dividend^0,c
  3546  0012D2  1E0A               	comf	(___awmod@dividend+1)^0,f,c
  3547  0012D4  B0D8               	btfsc	status,0,c
  3548  0012D6  2A0A               	incf	(___awmod@dividend+1)^0,f,c
  3549  0012D8  0E01               	movlw	1
  3550  0012DA  6E0E               	movwf	___awmod@sign^0,c
  3551  0012DC                     l2120:
  3552  0012DC  BE0C               	btfsc	(___awmod@divisor+1)^0,7,c
  3553  0012DE  EF75  F009         	goto	u1680
  3554  0012E2  EF73  F009         	goto	u1681
  3555  0012E6                     u1681:
  3556  0012E6  EF79  F009         	goto	l2124
  3557  0012EA                     u1680:
  3558  0012EA  6C0B               	negf	___awmod@divisor^0,c
  3559  0012EC  1E0C               	comf	(___awmod@divisor+1)^0,f,c
  3560  0012EE  B0D8               	btfsc	status,0,c
  3561  0012F0  2A0C               	incf	(___awmod@divisor+1)^0,f,c
  3562  0012F2                     l2124:
  3563  0012F2  500B               	movf	___awmod@divisor^0,w,c
  3564  0012F4  100C               	iorwf	(___awmod@divisor+1)^0,w,c
  3565  0012F6  B4D8               	btfsc	status,2,c
  3566  0012F8  EF80  F009         	goto	u1691
  3567  0012FC  EF82  F009         	goto	u1690
  3568  001300                     u1691:
  3569  001300  EFA6  F009         	goto	l2140
  3570  001304                     u1690:
  3571  001304  0E01               	movlw	1
  3572  001306  6E0D               	movwf	___awmod@counter^0,c
  3573  001308  EF8A  F009         	goto	l2130
  3574  00130C                     l2128:
  3575  00130C  90D8               	bcf	status,0,c
  3576  00130E  360B               	rlcf	___awmod@divisor^0,f,c
  3577  001310  360C               	rlcf	(___awmod@divisor+1)^0,f,c
  3578  001312  2A0D               	incf	___awmod@counter^0,f,c
  3579  001314                     l2130:
  3580  001314  AE0C               	btfss	(___awmod@divisor+1)^0,7,c
  3581  001316  EF8F  F009         	goto	u1701
  3582  00131A  EF91  F009         	goto	u1700
  3583  00131E                     u1701:
  3584  00131E  EF86  F009         	goto	l2128
  3585  001322                     u1700:
  3586  001322                     l2132:
  3587  001322  500B               	movf	___awmod@divisor^0,w,c
  3588  001324  5C09               	subwf	___awmod@dividend^0,w,c
  3589  001326  500C               	movf	(___awmod@divisor+1)^0,w,c
  3590  001328  580A               	subwfb	(___awmod@dividend+1)^0,w,c
  3591  00132A  A0D8               	btfss	status,0,c
  3592  00132C  EF9A  F009         	goto	u1711
  3593  001330  EF9C  F009         	goto	u1710
  3594  001334                     u1711:
  3595  001334  EFA0  F009         	goto	l2136
  3596  001338                     u1710:
  3597  001338  500B               	movf	___awmod@divisor^0,w,c
  3598  00133A  5E09               	subwf	___awmod@dividend^0,f,c
  3599  00133C  500C               	movf	(___awmod@divisor+1)^0,w,c
  3600  00133E  5A0A               	subwfb	(___awmod@dividend+1)^0,f,c
  3601  001340                     l2136:
  3602  001340  90D8               	bcf	status,0,c
  3603  001342  320C               	rrcf	(___awmod@divisor+1)^0,f,c
  3604  001344  320B               	rrcf	___awmod@divisor^0,f,c
  3605  001346  2E0D               	decfsz	___awmod@counter^0,f,c
  3606  001348  EF91  F009         	goto	l2132
  3607  00134C                     l2140:
  3608  00134C  500E               	movf	___awmod@sign^0,w,c
  3609  00134E  B4D8               	btfsc	status,2,c
  3610  001350  EFAC  F009         	goto	u1721
  3611  001354  EFAE  F009         	goto	u1720
  3612  001358                     u1721:
  3613  001358  EFB2  F009         	goto	l2144
  3614  00135C                     u1720:
  3615  00135C  6C09               	negf	___awmod@dividend^0,c
  3616  00135E  1E0A               	comf	(___awmod@dividend+1)^0,f,c
  3617  001360  B0D8               	btfsc	status,0,c
  3618  001362  2A0A               	incf	(___awmod@dividend+1)^0,f,c
  3619  001364                     l2144:
  3620  001364  C009  F009         	movff	___awmod@dividend,?___awmod
  3621  001368  C00A  F00A         	movff	___awmod@dividend+1,?___awmod+1
  3622  00136C  0012               	return		;funcret
  3623  00136E                     __end_of___awmod:
  3624                           	callstack 0
  3625                           
  3626 ;; *************** function ___awdiv *****************
  3627 ;; Defined at:
  3628 ;;		line 7 in file "C:\Program Files\Microchip\xc8\v2.32\pic\sources\c99\common\awdiv.c"
  3629 ;; Parameters:    Size  Location     Type
  3630 ;;  dividend        2    0[COMRAM] int 
  3631 ;;  divisor         2    2[COMRAM] int 
  3632 ;; Auto vars:     Size  Location     Type
  3633 ;;  quotient        2    6[COMRAM] int 
  3634 ;;  sign            1    5[COMRAM] unsigned char 
  3635 ;;  counter         1    4[COMRAM] unsigned char 
  3636 ;; Return value:  Size  Location     Type
  3637 ;;                  2    0[COMRAM] int 
  3638 ;; Registers used:
  3639 ;;		wreg, status,2, status,0
  3640 ;; Tracked objects:
  3641 ;;		On entry : 0/0
  3642 ;;		On exit  : 0/0
  3643 ;;		Unchanged: 0/0
  3644 ;; Data sizes:     COMRAM   BANK0   BANK1   BANK2   BANK3   BANK4   BANK5
  3645 ;;      Params:         4       0       0       0       0       0       0
  3646 ;;      Locals:         4       0       0       0       0       0       0
  3647 ;;      Temps:          0       0       0       0       0       0       0
  3648 ;;      Totals:         8       0       0       0       0       0       0
  3649 ;;Total ram usage:        8 bytes
  3650 ;; Hardware stack levels used: 1
  3651 ;; This function calls:
  3652 ;;		Nothing
  3653 ;; This function is called by:
  3654 ;;		_main
  3655 ;; This function uses a non-reentrant model
  3656 ;;
  3657                           
  3658                           	psect	text24
  3659  001146                     __ptext24:
  3660                           	callstack 0
  3661  001146                     ___awdiv:
  3662                           	callstack 30
  3663  001146  0E00               	movlw	0
  3664  001148  6E06               	movwf	___awdiv@sign^0,c
  3665  00114A  BE04               	btfsc	(___awdiv@divisor+1)^0,7,c
  3666  00114C  EFAC  F008         	goto	u1610
  3667  001150  EFAA  F008         	goto	u1611
  3668  001154                     u1611:
  3669  001154  EFB2  F008         	goto	l2076
  3670  001158                     u1610:
  3671  001158  6C03               	negf	___awdiv@divisor^0,c
  3672  00115A  1E04               	comf	(___awdiv@divisor+1)^0,f,c
  3673  00115C  B0D8               	btfsc	status,0,c
  3674  00115E  2A04               	incf	(___awdiv@divisor+1)^0,f,c
  3675  001160  0E01               	movlw	1
  3676  001162  6E06               	movwf	___awdiv@sign^0,c
  3677  001164                     l2076:
  3678  001164  BE02               	btfsc	(___awdiv@dividend+1)^0,7,c
  3679  001166  EFB9  F008         	goto	u1620
  3680  00116A  EFB7  F008         	goto	u1621
  3681  00116E                     u1621:
  3682  00116E  EFBF  F008         	goto	l2082
  3683  001172                     u1620:
  3684  001172  6C01               	negf	___awdiv@dividend^0,c
  3685  001174  1E02               	comf	(___awdiv@dividend+1)^0,f,c
  3686  001176  B0D8               	btfsc	status,0,c
  3687  001178  2A02               	incf	(___awdiv@dividend+1)^0,f,c
  3688  00117A  0E01               	movlw	1
  3689  00117C  1A06               	xorwf	___awdiv@sign^0,f,c
  3690  00117E                     l2082:
  3691  00117E  0E00               	movlw	0
  3692  001180  6E08               	movwf	(___awdiv@quotient+1)^0,c
  3693  001182  0E00               	movlw	0
  3694  001184  6E07               	movwf	___awdiv@quotient^0,c
  3695  001186  5003               	movf	___awdiv@divisor^0,w,c
  3696  001188  1004               	iorwf	(___awdiv@divisor+1)^0,w,c
  3697  00118A  B4D8               	btfsc	status,2,c
  3698  00118C  EFCA  F008         	goto	u1631
  3699  001190  EFCC  F008         	goto	u1630
  3700  001194                     u1631:
  3701  001194  EFF4  F008         	goto	l2104
  3702  001198                     u1630:
  3703  001198  0E01               	movlw	1
  3704  00119A  6E05               	movwf	___awdiv@counter^0,c
  3705  00119C  EFD4  F008         	goto	l2090
  3706  0011A0                     l2088:
  3707  0011A0  90D8               	bcf	status,0,c
  3708  0011A2  3603               	rlcf	___awdiv@divisor^0,f,c
  3709  0011A4  3604               	rlcf	(___awdiv@divisor+1)^0,f,c
  3710  0011A6  2A05               	incf	___awdiv@counter^0,f,c
  3711  0011A8                     l2090:
  3712  0011A8  AE04               	btfss	(___awdiv@divisor+1)^0,7,c
  3713  0011AA  EFD9  F008         	goto	u1641
  3714  0011AE  EFDB  F008         	goto	u1640
  3715  0011B2                     u1641:
  3716  0011B2  EFD0  F008         	goto	l2088
  3717  0011B6                     u1640:
  3718  0011B6                     l2092:
  3719  0011B6  90D8               	bcf	status,0,c
  3720  0011B8  3607               	rlcf	___awdiv@quotient^0,f,c
  3721  0011BA  3608               	rlcf	(___awdiv@quotient+1)^0,f,c
  3722  0011BC  5003               	movf	___awdiv@divisor^0,w,c
  3723  0011BE  5C01               	subwf	___awdiv@dividend^0,w,c
  3724  0011C0  5004               	movf	(___awdiv@divisor+1)^0,w,c
  3725  0011C2  5802               	subwfb	(___awdiv@dividend+1)^0,w,c
  3726  0011C4  A0D8               	btfss	status,0,c
  3727  0011C6  EFE7  F008         	goto	u1651
  3728  0011CA  EFE9  F008         	goto	u1650
  3729  0011CE                     u1651:
  3730  0011CE  EFEE  F008         	goto	l2100
  3731  0011D2                     u1650:
  3732  0011D2  5003               	movf	___awdiv@divisor^0,w,c
  3733  0011D4  5E01               	subwf	___awdiv@dividend^0,f,c
  3734  0011D6  5004               	movf	(___awdiv@divisor+1)^0,w,c
  3735  0011D8  5A02               	subwfb	(___awdiv@dividend+1)^0,f,c
  3736  0011DA  8007               	bsf	___awdiv@quotient^0,0,c
  3737  0011DC                     l2100:
  3738  0011DC  90D8               	bcf	status,0,c
  3739  0011DE  3204               	rrcf	(___awdiv@divisor+1)^0,f,c
  3740  0011E0  3203               	rrcf	___awdiv@divisor^0,f,c
  3741  0011E2  2E05               	decfsz	___awdiv@counter^0,f,c
  3742  0011E4  EFDB  F008         	goto	l2092
  3743  0011E8                     l2104:
  3744  0011E8  5006               	movf	___awdiv@sign^0,w,c
  3745  0011EA  B4D8               	btfsc	status,2,c
  3746  0011EC  EFFA  F008         	goto	u1661
  3747  0011F0  EFFC  F008         	goto	u1660
  3748  0011F4                     u1661:
  3749  0011F4  EF00  F009         	goto	l2108
  3750  0011F8                     u1660:
  3751  0011F8  6C07               	negf	___awdiv@quotient^0,c
  3752  0011FA  1E08               	comf	(___awdiv@quotient+1)^0,f,c
  3753  0011FC  B0D8               	btfsc	status,0,c
  3754  0011FE  2A08               	incf	(___awdiv@quotient+1)^0,f,c
  3755  001200                     l2108:
  3756  001200  C007  F001         	movff	___awdiv@quotient,?___awdiv
  3757  001204  C008  F002         	movff	___awdiv@quotient+1,?___awdiv+1
  3758  001208  0012               	return		;funcret
  3759  00120A                     __end_of___awdiv:
  3760                           	callstack 0
  3761                           
  3762                           	psect	rparam
  3763  0000                     
  3764                           	psect	idloc
  3765                           
  3766                           ;Config register IDLOC0 @ 0x200000
  3767                           ;	unspecified, using default values
  3768  200000                     	org	2097152
  3769  200000  FF                 	db	255
  3770                           
  3771                           ;Config register IDLOC1 @ 0x200001
  3772                           ;	unspecified, using default values
  3773  200001                     	org	2097153
  3774  200001  FF                 	db	255
  3775                           
  3776                           ;Config register IDLOC2 @ 0x200002
  3777                           ;	unspecified, using default values
  3778  200002                     	org	2097154
  3779  200002  FF                 	db	255
  3780                           
  3781                           ;Config register IDLOC3 @ 0x200003
  3782                           ;	unspecified, using default values
  3783  200003                     	org	2097155
  3784  200003  FF                 	db	255
  3785                           
  3786                           ;Config register IDLOC4 @ 0x200004
  3787                           ;	unspecified, using default values
  3788  200004                     	org	2097156
  3789  200004  FF                 	db	255
  3790                           
  3791                           ;Config register IDLOC5 @ 0x200005
  3792                           ;	unspecified, using default values
  3793  200005                     	org	2097157
  3794  200005  FF                 	db	255
  3795                           
  3796                           ;Config register IDLOC6 @ 0x200006
  3797                           ;	unspecified, using default values
  3798  200006                     	org	2097158
  3799  200006  FF                 	db	255
  3800                           
  3801                           ;Config register IDLOC7 @ 0x200007
  3802                           ;	unspecified, using default values
  3803  200007                     	org	2097159
  3804  200007  FF                 	db	255
  3805                           
  3806                           	psect	config
  3807                           
  3808                           ; Padding undefined space
  3809  300000                     	org	3145728
  3810  300000  FF                 	db	255
  3811                           
  3812                           ;Config register CONFIG1H @ 0x300001
  3813                           ;	unspecified, using default values
  3814                           ;	Oscillator Selection bits
  3815                           ;	OSC = 0x7, unprogrammed default
  3816                           ;	Fail-Safe Clock Monitor Enable bit
  3817                           ;	FCMEN = 0x0, unprogrammed default
  3818                           ;	Internal/External Oscillator Switchover bit
  3819                           ;	IESO = 0x0, unprogrammed default
  3820  300001                     	org	3145729
  3821  300001  07                 	db	7
  3822                           
  3823                           ;Config register CONFIG2L @ 0x300002
  3824                           ;	unspecified, using default values
  3825                           ;	Power-up Timer Enable bit
  3826                           ;	PWRT = 0x1, unprogrammed default
  3827                           ;	Brown-out Reset Enable bits
  3828                           ;	BOREN = 0x3, unprogrammed default
  3829                           ;	Brown Out Reset Voltage bits
  3830                           ;	BORV = 0x3, unprogrammed default
  3831  300002                     	org	3145730
  3832  300002  1F                 	db	31
  3833                           
  3834                           ;Config register CONFIG2H @ 0x300003
  3835                           ;	unspecified, using default values
  3836                           ;	Watchdog Timer Enable bit
  3837                           ;	WDT = 0x1, unprogrammed default
  3838                           ;	Watchdog Timer Postscale Select bits
  3839                           ;	WDTPS = 0xF, unprogrammed default
  3840  300003                     	org	3145731
  3841  300003  1F                 	db	31
  3842                           
  3843                           ; Padding undefined space
  3844  300004                     	org	3145732
  3845  300004  FF                 	db	255
  3846                           
  3847                           ;Config register CONFIG3H @ 0x300005
  3848                           ;	unspecified, using default values
  3849                           ;	CCP2 MUX bit
  3850                           ;	CCP2MX = 0x1, unprogrammed default
  3851                           ;	PORTB A/D Enable bit
  3852                           ;	PBADEN = 0x1, unprogrammed default
  3853                           ;	Low-Power Timer1 Oscillator Enable bit
  3854                           ;	LPT1OSC = 0x0, unprogrammed default
  3855                           ;	MCLR Pin Enable bit
  3856                           ;	MCLRE = 0x1, unprogrammed default
  3857  300005                     	org	3145733
  3858  300005  83                 	db	131
  3859                           
  3860                           ;Config register CONFIG4L @ 0x300006
  3861                           ;	unspecified, using default values
  3862                           ;	Stack Full/Underflow Reset Enable bit
  3863                           ;	STVREN = 0x1, unprogrammed default
  3864                           ;	Single-Supply ICSP Enable bit
  3865                           ;	LVP = 0x1, unprogrammed default
  3866                           ;	Extended Instruction Set Enable bit
  3867                           ;	XINST = 0x0, unprogrammed default
  3868                           ;	Background Debugger Enable bit
  3869                           ;	DEBUG = 0x1, unprogrammed default
  3870  300006                     	org	3145734
  3871  300006  85                 	db	133
  3872                           
  3873                           ; Padding undefined space
  3874  300007                     	org	3145735
  3875  300007  FF                 	db	255
  3876                           
  3877                           ;Config register CONFIG5L @ 0x300008
  3878                           ;	unspecified, using default values
  3879                           ;	Code Protection bit
  3880                           ;	CP0 = 0x1, unprogrammed default
  3881                           ;	Code Protection bit
  3882                           ;	CP1 = 0x1, unprogrammed default
  3883                           ;	Code Protection bit
  3884                           ;	CP2 = 0x1, unprogrammed default
  3885                           ;	Code Protection bit
  3886                           ;	CP3 = 0x1, unprogrammed default
  3887  300008                     	org	3145736
  3888  300008  0F                 	db	15
  3889                           
  3890                           ;Config register CONFIG5H @ 0x300009
  3891                           ;	unspecified, using default values
  3892                           ;	Boot Block Code Protection bit
  3893                           ;	CPB = 0x1, unprogrammed default
  3894                           ;	Data EEPROM Code Protection bit
  3895                           ;	CPD = 0x1, unprogrammed default
  3896  300009                     	org	3145737
  3897  300009  C0                 	db	192
  3898                           
  3899                           ;Config register CONFIG6L @ 0x30000A
  3900                           ;	unspecified, using default values
  3901                           ;	Write Protection bit
  3902                           ;	WRT0 = 0x1, unprogrammed default
  3903                           ;	Write Protection bit
  3904                           ;	WRT1 = 0x1, unprogrammed default
  3905                           ;	Write Protection bit
  3906                           ;	WRT2 = 0x1, unprogrammed default
  3907                           ;	Write Protection bit
  3908                           ;	WRT3 = 0x1, unprogrammed default
  3909  30000A                     	org	3145738
  3910  30000A  0F                 	db	15
  3911                           
  3912                           ;Config register CONFIG6H @ 0x30000B
  3913                           ;	unspecified, using default values
  3914                           ;	Configuration Register Write Protection bit
  3915                           ;	WRTC = 0x1, unprogrammed default
  3916                           ;	Boot Block Write Protection bit
  3917                           ;	WRTB = 0x1, unprogrammed default
  3918                           ;	Data EEPROM Write Protection bit
  3919                           ;	WRTD = 0x1, unprogrammed default
  3920  30000B                     	org	3145739
  3921  30000B  E0                 	db	224
  3922                           
  3923                           ;Config register CONFIG7L @ 0x30000C
  3924                           ;	unspecified, using default values
  3925                           ;	Table Read Protection bit
  3926                           ;	EBTR0 = 0x1, unprogrammed default
  3927                           ;	Table Read Protection bit
  3928                           ;	EBTR1 = 0x1, unprogrammed default
  3929                           ;	Table Read Protection bit
  3930                           ;	EBTR2 = 0x1, unprogrammed default
  3931                           ;	Table Read Protection bit
  3932                           ;	EBTR3 = 0x1, unprogrammed default
  3933  30000C                     	org	3145740
  3934  30000C  0F                 	db	15
  3935                           
  3936                           ;Config register CONFIG7H @ 0x30000D
  3937                           ;	unspecified, using default values
  3938                           ;	Boot Block Table Read Protection bit
  3939                           ;	EBTRB = 0x1, unprogrammed default
  3940  30000D                     	org	3145741
  3941  30000D  40                 	db	64
  3942                           tosu	equ	0xFFF
  3943                           tosh	equ	0xFFE
  3944                           tosl	equ	0xFFD
  3945                           stkptr	equ	0xFFC
  3946                           pclatu	equ	0xFFB
  3947                           pclath	equ	0xFFA
  3948                           pcl	equ	0xFF9
  3949                           tblptru	equ	0xFF8
  3950                           tblptrh	equ	0xFF7
  3951                           tblptrl	equ	0xFF6
  3952                           tablat	equ	0xFF5
  3953                           prodh	equ	0xFF4
  3954                           prodl	equ	0xFF3
  3955                           indf0	equ	0xFEF
  3956                           postinc0	equ	0xFEE
  3957                           postdec0	equ	0xFED
  3958                           preinc0	equ	0xFEC
  3959                           plusw0	equ	0xFEB
  3960                           fsr0h	equ	0xFEA
  3961                           fsr0l	equ	0xFE9
  3962                           wreg	equ	0xFE8
  3963                           indf1	equ	0xFE7
  3964                           postinc1	equ	0xFE6
  3965                           postdec1	equ	0xFE5
  3966                           preinc1	equ	0xFE4
  3967                           plusw1	equ	0xFE3
  3968                           fsr1h	equ	0xFE2
  3969                           fsr1l	equ	0xFE1
  3970                           bsr	equ	0xFE0
  3971                           indf2	equ	0xFDF
  3972                           postinc2	equ	0xFDE
  3973                           postdec2	equ	0xFDD
  3974                           preinc2	equ	0xFDC
  3975                           plusw2	equ	0xFDB
  3976                           fsr2h	equ	0xFDA
  3977                           fsr2l	equ	0xFD9
  3978                           status	equ	0xFD8

Data Sizes:
    Strings     117
    Constant    16
    Data        0
    BSS         12
    Persistent  0
    Stack       0

Auto Spaces:
    Space          Size  Autos    Used
    COMRAM          127     28      40
    BANK0           128      0       0
    BANK1           256      0       0
    BANK2           256      0       0
    BANK3           256      0       0
    BANK4           256      0       0
    BANK5           256      0       0

Pointer List with Targets:

    serial_tx_str@val	PTR const unsigned char  size(2) Largest target is 25
		 -> STR_8(CODE[25]), 

    lcd_str@str	PTR const unsigned char  size(2) Largest target is 14
		 -> STR_10(CODE[6]), STR_9(CODE[10]), STR_7(CODE[11]), STR_6(CODE[8]), 
		 -> STR_5(CODE[11]), STR_4(CODE[11]), STR_3(CODE[14]), STR_2(CODE[8]), 
		 -> STR_1(CODE[13]), 


Critical Paths under _main in COMRAM

    _main->_pwmFrequency
    _main->_ssdDigit
    _ssdUpdate->_digitalWrite
    _ssdInit->_pinMode
    _ssdDigit->___awmod
    _serial_tx_str->_serial_tx
    _pwmFrequency->___aldiv
    _initial->_lcd_str
    _lcd_str->_lcd_dat
    _lcd_dat->_atraso_ms
    _lcd_init->_lcd_cmd
    _lcd_cmd->_atraso_ms
    ___awmod->___awdiv

Critical Paths under _main in BANK0

    None.

Critical Paths under _main in BANK1

    None.

Critical Paths under _main in BANK2

    None.

Critical Paths under _main in BANK3

    None.

Critical Paths under _main in BANK4

    None.

Critical Paths under _main in BANK5

    None.

Call Graph Tables:

 ---------------------------------------------------------------------------------
 (Depth) Function   	        Calls       Base Space   Used Autos Params    Refs
 ---------------------------------------------------------------------------------
 (0) _main                                                13    13      0   18353
                                             16 COMRAM    12    12      0
                            ___awdiv
                            ___awmod
                             ___wmul
                          _atraso_ms
                            _initial
                         _kpDebounce
                             _kpInit
                             _kpRead
                            _lcd_cmd
                            _lcd_str
                       _pwmFrequency
                            _pwmInit
                        _serial_init
                      _serial_tx_str
                           _ssdDigit
                            _ssdInit
                          _ssdUpdate
 ---------------------------------------------------------------------------------
 (1) _ssdUpdate                                            2     2      0    2572
                                              6 COMRAM     2     2      0
                       _digitalWrite
 ---------------------------------------------------------------------------------
 (2) _digitalWrite                                         6     2      4    2572
                                              0 COMRAM     6     2      4
 ---------------------------------------------------------------------------------
 (1) _ssdInit                                              0     0      0    1352
                            _pinMode
 ---------------------------------------------------------------------------------
 (2) _pinMode                                              6     2      4    1352
                                              0 COMRAM     6     2      4
 ---------------------------------------------------------------------------------
 (1) _ssdDigit                                             2     1      1     556
                                             14 COMRAM     2     1      1
                            ___awdiv (ARG)
                            ___awmod (ARG)
 ---------------------------------------------------------------------------------
 (1) _serial_tx_str                                        5     3      2     181
                                              1 COMRAM     5     3      2
                          _serial_tx
 ---------------------------------------------------------------------------------
 (2) _serial_tx                                            1     1      0      15
                                              0 COMRAM     1     1      0
 ---------------------------------------------------------------------------------
 (1) _serial_init                                          0     0      0       0
 ---------------------------------------------------------------------------------
 (1) _pwmInit                                              0     0      0       0
 ---------------------------------------------------------------------------------
 (1) _pwmFrequency                                         2     0      2     550
                                             14 COMRAM     2     0      2
                            ___aldiv
 ---------------------------------------------------------------------------------
 (2) ___aldiv                                             14     6      8     452
                                              0 COMRAM    14     6      8
 ---------------------------------------------------------------------------------
 (1) _kpRead                                               2     0      2       0
                                              0 COMRAM     2     0      2
 ---------------------------------------------------------------------------------
 (1) _kpInit                                               0     0      0       0
 ---------------------------------------------------------------------------------
 (1) _kpDebounce                                          10    10      0     210
                                              0 COMRAM    10    10      0
 ---------------------------------------------------------------------------------
 (1) _initial                                              1     1      0    6285
                          _atraso_ms
                            _lcd_cmd
                           _lcd_init
                            _lcd_str
 ---------------------------------------------------------------------------------
 (1) _lcd_str                                              5     3      2    1891
                                              6 COMRAM     5     3      2
                            _lcd_dat
 ---------------------------------------------------------------------------------
 (2) _lcd_dat                                              1     1      0    1117
                                              5 COMRAM     1     1      0
                          _atraso_ms
                             _lcd_wr
 ---------------------------------------------------------------------------------
 (2) _lcd_init                                             0     0      0    2197
                          _atraso_ms
                            _lcd_cmd
 ---------------------------------------------------------------------------------
 (1) _lcd_cmd                                              1     1      0    1117
                                              5 COMRAM     1     1      0
                          _atraso_ms
                             _lcd_wr
 ---------------------------------------------------------------------------------
 (3) _lcd_wr                                               1     1      0      15
                                              0 COMRAM     1     1      0
 ---------------------------------------------------------------------------------
 (3) _atraso_ms                                            5     3      2    1080
                                              0 COMRAM     5     3      2
 ---------------------------------------------------------------------------------
 (1) ___wmul                                               6     2      4     615
                                              0 COMRAM     6     2      4
 ---------------------------------------------------------------------------------
 (1) ___awmod                                              6     2      4     752
                                              8 COMRAM     6     2      4
                            ___awdiv (ARG)
 ---------------------------------------------------------------------------------
 (1) ___awdiv                                              8     4      4     756
                                              0 COMRAM     8     4      4
 ---------------------------------------------------------------------------------
 Estimated maximum stack depth 3
 ---------------------------------------------------------------------------------

 Call Graph Graphs:

 _main (ROOT)
   ___awdiv
   ___awmod
     ___awdiv (ARG)
   ___wmul
   _atraso_ms
   _initial
     _atraso_ms
     _lcd_cmd
       _atraso_ms
       _lcd_wr
     _lcd_init
       _atraso_ms
       _lcd_cmd
     _lcd_str
       _lcd_dat
         _atraso_ms
         _lcd_wr
   _kpDebounce
   _kpInit
   _kpRead
   _lcd_cmd
   _lcd_str
   _pwmFrequency
     ___aldiv
   _pwmInit
   _serial_init
   _serial_tx_str
     _serial_tx
   _ssdDigit
     ___awdiv (ARG)
     ___awmod (ARG)
   _ssdInit
     _pinMode
   _ssdUpdate
     _digitalWrite

 Address spaces:
Name               Size   Autos  Total    Cost      Usage
BIGRAM             5FF      0       0      17        0.0%
EEDATA             100      0       0       0        0.0%
BITBANK5           100      0       0      16        0.0%
BANK5              100      0       0      14        0.0%
BITBANK4           100      0       0      12        0.0%
BANK4              100      0       0      13        0.0%
BITBANK3           100      0       0      10        0.0%
BANK3              100      0       0      11        0.0%
BITBANK2           100      0       0       8        0.0%
BANK2              100      0       0       9        0.0%
BITBANK1           100      0       0       6        0.0%
BANK1              100      0       0       7        0.0%
BITBANK0            80      0       0       4        0.0%
BANK0               80      0       0       5        0.0%
BITCOMRAM           7F      0       0       0        0.0%
COMRAM              7F     1C      28       1       31.5%
BITSFR               0      0       0     200        0.0%
SFR                  0      0       0     200        0.0%
STACK                0      0       0       2        0.0%
NULL                 0      0       0       0        0.0%
ABS                  0      0      28      15        0.0%
DATA                 0      0      28       3        0.0%
CODE                 0      0       0       0        0.0%


Microchip Technology PIC18 Macro Assembler V2.32 build 20210201212658 
Symbol Table                                                                                   Sun Aug 01 00:17:46 2021

                      l8 1554                       l50 08D4                       l84 0B22  
                     l93 1664                       l96 15A8                       l99 157E  
           ___awdiv@sign 0006                       _v0 0026                       _v1 0025  
                     _v2 0024                       _v3 0023      ___wmul@multiplicand 0003  
                    l102 13C8                      l131 1620                      l108 1516  
                    l125 1634                      l215 1420                      l128 1612  
                    l137 14C6                      l225 1038                      l314 15CE  
                    l228 1476                      l165 1652                      l317 1648  
                    l430 1144                      l351 15F4                      l183 0EC8  
                    l184 0EE0                      l185 0EE8                      l188 165C  
                    l269 12BC                      l289 0D68                      l582 1208  
                    l595 136C                      _PR2 000FCB                      u610 0E8C  
                    u450 1620                      u611 0E88                      u451 161C  
                    u620 0E9E                      u604 0E64                      u621 0E9A  
                    u605 0E5E                      u630 0EB6                      u631 0EB2  
                    u640 0ED8                      u560 0DE6                      u544 0D92  
                    u641 0ED4                      u561 0DE2                      u545 0D8E  
                    u554 0DB2                      u555 0DAE                      u580 0E16  
                    u581 0E12                      u574 0DFC                      u575 0DF8  
                    u594 0E34                      u595 0E2E             ___awmod@sign 000E  
                    wreg 000FE8                     l1040 1660                     l2000 0FFE  
                   l2010 120A                     l2100 11DC                     l2020 1256  
                   l2012 1214                     l1300 0E9E                     l2102 11E2  
                   l2030 128C                     l2022 1262                     l2014 1220  
                   l1310 0EE4                     l1302 0EB6                     l2006 1422  
                   l2104 11E8                     l2120 12DC                     l2112 12BE  
                   l2032 129E                     l2024 1274                     l2016 122C  
                   l1304 0EBC                     l1312 1654                     l1240 162C  
                   l1232 1622                     l2008 1472                     l2106 11F8  
                   l2130 1314                     l2122 12EA                     l2114 12C2  
                   l2034 12AA                     l2026 1280                     l2018 1232  
                   l1306 0EC0                     l1410 163E                     l1242 162E  
                   l1234 1626                     l2202 0BCE                     l2108 1200  
                   l2132 1322                     l2140 134C                     l2124 12F2  
                   l2116 12D0                     l2036 12B6                     l2028 1286  
                   l1308 0ED8                     l1260 0D74                     l1244 1630  
                   l1236 1628                     l2220 0BFC                     l2070 114A  
                   l2142 135C                     l2134 1338                     l2126 1304  
                   l2118 12D8                     l2062 15D0                     l1270 0DBE  
                   l1262 0D78                     l2038 15AA                     l1406 1636  
                   l1246 1632                     l1238 162A                     l1174 160E  
                   l2230 0C40                     l2222 0C1A                     l2214 0BDC  
                   l2206 0BCE                     l2080 117A                     l2072 1158  
                   l2144 1364                     l2136 1340                     l2128 130C  
                   l2064 15EC                     l1280 0DE6                     l1408 163A  
                   l2232 0C42                     l2224 0C3C                     l2216 0BE0  
                   l2208 0BD0                     l2090 11A8                     l2082 117E  
                   l2074 1160                     l2138 1346                     l1290 0E46  
                   l1258 0D70                     l2218 0BF0                     l2234 0C52  
                   l2170 0B48                     l2092 11B6                     l2084 1186  
                   l2076 1164                     l2068 1146                     l1292 0E7A  
                   l1276 0DC6                     l1268 0D7C                     l2260 0D22  
                   l2244 0C92                     l2236 0C6E                     l2180 0B64  
                   l2172 0B4C                     l2094 11BC                     l2086 1198  
                   l2078 1172                     l1294 0E7C                     l1286 0DEA  
                   l1278 0DCA                     l2342 1012                     l2262 0D3E  
                   l2254 0D0C                     l2246 0D04                     l2238 0C8A  
                   l2190 0B9C                     l2182 0B68                     l2174 0B58  
                   l2096 11D2                     l2088 11A0                     l1296 0E8C  
                   l1288 0E16                     l1800 06A4                     l2264 0D4A  
                   l2256 0D0E                     l2248 0D08                     l2192 0BBA  
                   l2184 0B78                     l2176 0B5C                     l2168 0B24  
                   l2098 11DA                     l1298 0E8E                     l1810 072E  
                   l1802 06B6                     l2266 0D56                     l2258 0D1E  
                   l2194 0BBE                     l2186 0B7C                     l2178 0B60  
                   l1900 1060                     l1820 07C6                     l1812 074E  
                   l1804 06D6                     l2196 0BCA                     l2188 0B80  
                   l1910 10A8                     l1902 106E                     l1830 0860  
                   l1822 07E8                     l1814 0770                     l1806 06F8  
                   l1920 10F2                     l1912 10B0                     l1904 107E  
                   l1840 08F2                     l1832 087C                     l1824 0804  
                   l1816 078C                     l1808 0714                     l1762 1528  
                   l1754 1518                     l1770 1582                     l1930 1124  
                   l1922 1102                     l1914 10BC                     l1906 1082  
                   l1850 0974                     l1842 0904                     l1834 0896  
                   l1826 081E                     l1818 07A6                     l1764 152A  
                   l1756 1524                     l1780 159A                     l1772 1584  
                   l1932 1134                     l1924 1104                     l1916 10CA  
                   l1908 1092                     l1940 149C                     l1860 0A10  
                   l1852 0998                     l1844 0924                     l1836 08B6  
                   l1828 083E                     l1766 153A                     l1782 15A6  
                   l1774 158A                     l1790 1562                     l1926 110E  
                   l1918 10D4                     l1942 149E                     l1950 13E0  
                   l1870 0AAE                     l1862 0A36                     l1854 09BE  
                   l1846 0946                     l1838 08D6                     l1768 153E  
                   l1776 158C                     l1880 1372                     l1792 156E  
                   l1784 1558                     l1944 164A                     l1928 1114  
                   l1936 1478                     l1960 141C                     l1952 13F0  
                   l1872 0ACA                     l1864 0A52                     l1856 09DA  
                   l1848 0962                     l1778 1598                     l1882 137E  
                   l1794 1570                     l1786 155A                     l1890 14EE  
                   l1938 1480                     l1954 13F4                     l1946 13CC  
                   l1874 0ADC                     l1866 0A64                     l1858 09EC  
                   l1970 0F2A                     l1962 0EEA                     l1796 157C  
                   l1788 1560                     l1884 14C8                     l1892 103A  
                   l1956 1406                     l1948 13DC                     l1876 0B00  
                   l1868 0A88                     l1980 0F86                     l1972 0F46  
                   l1964 0EEE                     l1878 136E                     l1886 14D0  
                   l1894 103E                     l1958 140A                     l1798 0688  
                   l1990 0FD0                     l1982 0F9A                     l1974 0F58  
                   l1966 0F02                     l1888 14EC                     l1896 104C  
                   l1992 0FE2                     l1984 0FA2                     l1976 0F6C  
                   l1968 0F16                     l1898 105C                     l1994 0FF6  
                   l1986 0FB4                     l1978 0F74                     l1988 0FC8  
                   STR_1 0638                     STR_2 0670                     STR_3 062A  
                   STR_4 065B                     STR_5 0650                     STR_6 0678  
                   STR_7 0645                     STR_8 0611                     STR_9 0666  
                   u1110 0714                     u1111 0710                     u1200 081E  
                   u1120 072E                     u1104 06E8                     u1201 081A  
                   u1121 072A                     u1105 06E4                     u1050 153A  
                   u1051 1536                     u1060 1554                     u1061 1550  
                   u1310 0962                     u1230 087C                     u1214 0830  
                   u1150 078C                     u1134 0740                     u1070 06A4  
                   u1311 095E                     u1231 0878                     u1215 082C  
                   u1151 0788                     u1135 073C                     u1071 06A0  
                   u1400 0A64                     u1320 0974                     u1304 0936  
                   u1240 0896                     u1224 0850                     u1160 07A6  
                   u1144 0760                     u1080 06B6                     u1401 0A60  
                   u1321 0970                     u1305 0932                     u1241 0892  
                   u1225 084C                     u1161 07A2                     u1145 075C  
                   u1081 06B2                     u1500 10A8                     u1501 10A4  
                   u1510 10CA                     u1430 0ACA                     u1414 0A7A  
                   u1350 09DA                     u1334 098A                     u1270 08F2  
                   u1254 08A8                     u1190 0804                     u1174 07B8  
                   u1094 06C8                     u1511 10C6                     u1431 0AC6  
                   u1415 0A76                     u1351 09D6                     u1335 0986  
                   u1271 08EE                     u1255 08A4                     u1191 0800  
                   u1175 07B4                     u1095 06C4                     u1520 10F2  
                   u1440 0ADC                     u1424 0A9E                     u1360 09EC  
                   u1344 09AE                     u1280 0904                     u1264 08C8  
                   u1184 07D8                     u1521 10EE                     u1441 0AD8  
                   u1425 0A9A                     u1361 09E8                     u1345 09AA  
                   u1281 0900                     u1265 08C4                     u1185 07D4  
                   u1610 1158                     u1530 1124                     u1611 1154  
                   u1531 1120                     u1620 1172                     u1700 1322  
                   u1540 14C6                     u1621 116E                     u1701 131E  
                   u1541 14C2                     u1630 1198                     u1710 1338  
                   u1470 1516                     u1550 13DC                     u1454 0AF2  
                   u1390 0A52                     u1374 0A02                     u1294 0916  
                   u1631 1194                     u1711 1334                     u1471 1512  
                   u1551 13D8                     u1455 0AEE                     u1391 0A4E  
                   u1375 09FE                     u1295 0912                     u1640 11B6  
                   u1720 135C                     u1480 104C                     u1560 13F0  
                   u1464 0B16                     u1384 0A26                     u1800 0BBA  
                   u1641 11B2                     u1721 1358                     u1481 1048  
                   u1561 13EC                     u1465 0B12                     u1385 0A22  
                   u1801 0BB6                     u1650 11D2                     u1490 106E  
                   u1570 1406                     u1810 0BF0                     u1651 11CE  
                   u1491 106A                     u1571 1402                     u1811 0BEC  
                   u1660 11F8                     u1580 141C                     u1820 0C52  
                   u1661 11F4                     u1581 1418                     u1821 0C4E  
                   u1670 12D0                     u1830 0C6E                     u1671 12CC  
                   u1831 0C6A                     u1680 12EA                     u1840 0D1E  
                   u1681 12E6                     u1841 0D1A                     u1690 1304  
                   u1850 0D3E                     u1691 1300                     u1851 0D3A  
                   u1790 0B9C                     u1791 0B98                     _main 0B24  
                   prodh 000FF4                     prodl 000FF3                     start 0000  
           ___param_bank 000000          __end_of___aldiv 1146                    ?_main 0001  
        __end_of___awdiv 120A                    STR_10 0680          __end_of___awmod 136E  
        ___awdiv@divisor 0003                    _T2CON 000FCA          ___awdiv@counter 0005  
                  _RCREG 000FAE                    _SPBRG 000FAF                    _PORTA 000F80  
                  _PORTB 000F81                    _PORTC 000F82                    _PORTD 000F83  
                  _PORTE 000F84                    _TRISA 000F92                    _TRISB 000F93  
                  _TRISC 000F94                    _TRISD 000F95                    _TRISE 000F96  
                  _TXREG 000FAD          __end_of_lcd_dat 1580          __end_of_lcd_cmd 15AA  
        __end_of_lcd_str 1518          __end_of_initial 12BE          __end_of_pinMode 0B24  
                  _valor 0021                    main@i 001C                    main@k 0017  
                  main@l 0015                    tablat 000FF5          __end_of_ssdInit 1478  
        __end_of_pwmInit 164A                    status 000FD8     __end_of_digitalWrite 08D6  
        __initialization 15F6             __end_of_main 0D70         serial_tx_str@val 0002  
                 ??_main 0011            __activetblptr 000002                   _CCPR1L 000FBE  
                 _CCPR2L 000FBB         ___awdiv@dividend 0001             ?_serial_init 0001  
       __end_of_lcd_init 13CA                ??___aldiv 0009                   ___wmul 15D0  
              ??___awdiv 0005                ??___awmod 000D                   _kpInit 1654  
                 _kpRead 164A                   _lcd_wr 165E                   clear_0 15FC  
       ___awdiv@quotient 0007          ___awmod@divisor 000B                   isa$std 000001  
        ___awmod@counter 000D                ??_lcd_dat 0006                ??_lcd_cmd 0006  
              ??_lcd_str 0009         __end_of_ssdDigit 1422                ??_initial 000C  
              ??_pinMode 0005             __mediumconst 0000                   tblptrh 000FF7  
                 tblptrl 000FF6                   tblptru 000FF8                ??_ssdInit 0007  
              ??_pwmInit 0001               __accesstop 0080  __end_of__initialization 1602  
          ___rparam_used 000001              pinMode@type 0003           __pcstackCOMRAM 0001  
  __end_of_serial_tx_str 14C8       __size_of_atraso_ms 003E    __size_of_digitalWrite 024E  
                ?___wmul 0001                  ?_kpInit 0001                  ?_kpRead 0001  
                ?_lcd_wr 0001                  _CCP1CON 000FBD                  _CCP2CON 000FBA  
             _kpDebounce 0D70       __size_of_serial_tx 0016       __size_of_ssdUpdate 0150  
           _digitalWrite 0688                ?_lcd_init 0001                  __Hparam 0000  
                __Lparam 0000                ?_ssdDigit 000F          kpDebounce@old_D 0006  
        kpDebounce@tempo 0028                  ___aldiv 103A                  ___awdiv 1146  
                ___awmod 12BE          __size_of___wmul 0026     __size_of_serial_init 0014  
      __end_of_atraso_ms 1556             __psmallconst 0600          __size_of_kpInit 000A  
        __size_of_kpRead 000A          __size_of_lcd_wr 0008              ssdDigit@val 0010  
            ssdDigit@pos 000F                  __pcinit 15F6                  __ramtop 0600  
                __ptext0 0B24                  __ptext1 0EEA                  __ptext2 0688  
                __ptext3 1422                  __ptext4 08D6                  __ptext5 13CA  
                __ptext6 1478                  __ptext7 160C                  __ptext8 1622  
                __ptext9 1636                  _lcd_dat 1556                  _lcd_cmd 1580  
                _display 0027                  _lcd_str 14C8                  _initial 120A  
                _pinMode 08D6         ___awmod@dividend 0009         ___aldiv@dividend 0001  
                _ssdInit 1422                  _pwmInit 1636               ??_lcd_init 0007  
    kpDebounce@valorNovo 001F     end_of_initialization 1602            __Lmediumconst 0000  
      __end_of_serial_tx 1622            ?_pwmFrequency 000F        __end_of_ssdUpdate 103A  
             ??_ssdDigit 0010                _RCSTAbits 000FAB         ___aldiv@quotient 000B  
                postinc0 000FEE              ?_kpDebounce 0001                _PORTEbits 000F84  
         _valor@ssd$F394 0601               lcd_dat@val 0006               lcd_cmd@val 0006  
         ??_pwmFrequency 0011                _TXSTAbits 000FAC               lcd_str@str 0007  
             main@result 0018           serial_tx_str@i 0006               atraso_ms@i 0003  
             atraso_ms@j 0005           __end_of___wmul 15F6           __end_of_kpInit 165E  
         __end_of_kpRead 1654           __end_of_lcd_wr 1666   __end_of_valor@ssd$F394 0611  
    start_initialization 15F6      __size_of_kpDebounce 017A                 ??___wmul 0005  
               ??_kpInit 0001                 ??_kpRead 0003                 ??_lcd_wr 0001  
            __pbssCOMRAM 001D               pinMode@pin 0001        __size_of_lcd_init 005C  
 __size_of_serial_tx_str 0050                 ?___aldiv 0001                 ?___awdiv 0001  
               ?___awmod 0009        __size_of_ssdDigit 0058                 ?_lcd_dat 0001  
               ?_lcd_cmd 0001                 ?_lcd_str 0007     __end_of_pwmFrequency 15D0  
              _atraso_ms 1518              __smallconst 0600                 ?_initial 0001  
               ?_pinMode 0001                 ?_ssdInit 0001                 ?_pwmInit 0001  
       pwmFrequency@freq 000F           atraso_ms@valor 0001          ___aldiv@divisor 0005  
        ___aldiv@counter 0009           ___wmul@product 0005                 _PIR1bits 000F9E  
          ??_serial_init 0001                _serial_tx 160C                _ssdUpdate 0EEA  
           ??_kpDebounce 0001            _serial_tx_str 1478        ___wmul@multiplier 0001  
             ?_atraso_ms 0001    kpDebounce@valorAntigo 001D                lcd_wr@val 0001  
              main@tecla 0013                main@tempo 0011       __end_of_kpDebounce 0EEA  
               __Hrparam 0000                 __Lrparam 0000               ?_serial_tx 0001  
             ?_ssdUpdate 0001         __size_of___aldiv 010C         __size_of___awdiv 00C4  
       __size_of___awmod 00B0           ?_serial_tx_str 0002      __end_of_serial_init 1636  
       __size_of_lcd_dat 002A         __size_of_lcd_cmd 002A         __size_of_lcd_str 0050  
       __size_of_initial 00B4         __size_of_pinMode 024E                 __ptext10 15AA  
               __ptext11 103A                 __ptext20 165E                 __ptext12 164A  
               __ptext21 1518                 __ptext13 1654                 __ptext22 15D0  
               __ptext14 0D70                 __ptext23 12BE                 __ptext15 120A  
               __ptext24 1146                 __ptext16 14C8                 __ptext17 1556  
               __ptext18 136E                 __ptext19 1580         __size_of_ssdInit 0056  
       __size_of_pwmInit 0014                 _lcd_init 136E            __size_of_main 024C  
               _ssdDigit 13CA                 isa$xinst 000000    __size_of_pwmFrequency 0026  
               main@beat 001A             serial_tx@val 0001                 lcd_str@i 000B  
            ??_atraso_ms 0003            ?_digitalWrite 0001        digitalWrite@value 0003  
           _pwmFrequency 15AA              ??_serial_tx 0001              _serial_init 1622  
        ??_serial_tx_str 0004              ??_ssdUpdate 0007              kpDebounce@i 000A  
            kpDebounce@j 0009              kpDebounce@k 0007           ??_digitalWrite 0005  
           ___aldiv@sign 000A          digitalWrite@pin 0001  
